

Microchip Technology PIC18 LITE Macro Assembler V2.00 build -1524193055 
                                                                                               Mon Nov 26 22:20:09 2018

Microchip Technology Omniscient Code Generator v2.00 (Free mode) build 20180527130849
     1  0000                     
     2                           ; Version 2.00
     3                           ; Generated 27/05/2018 GMT
     4                           
     5                           ; 
     6                           ; Copyright © 2018, Microchip Technology Inc. and its subsidiaries ("Microchip")
     7                           ; All rights reserved.
     8                           ; 
     9                           ; This software is developed by Microchip Technology Inc. and its subsidiaries ("Microch
                                 ip").
    10                           ; 
    11                           ; Redistribution and use in source and binary forms, with or without modification, are
    12                           ; permitted provided that the following conditions are met:
    13                           ; 
    14                           ;     1. Redistributions of source code must retain the above copyright notice, this lis
                                 t of
    15                           ;        conditions and the following disclaimer.
    16                           ; 
    17                           ;     2. Redistributions in binary form must reproduce the above copyright notice, this 
                                 list
    18                           ;        of conditions and the following disclaimer in the documentation and/or other
    19                           ;        materials provided with the distribution.
    20                           ; 
    21                           ;     3. Microchip's name may not be used to endorse or promote products derived from th
                                 is
    22                           ;        software without specific prior written permission.
    23                           ; 
    24                           ; THIS SOFTWARE IS PROVIDED BY MICROCHIP "AS IS" AND ANY EXPRESS OR IMPLIED WARRANTIES,

    25                           ; INCLUDING, BUT NOT LIMITED TO, THE IMPLIED WARRANTIES OF MERCHANTABILITY AND FITNESS F
                                 OR
    26                           ; PURPOSE ARE DISCLAIMED.  IN NO EVENT SHALL MICROCHIP BE LIABLE FOR ANY DIRECT, INDIREC
                                 T,
    27                           ; INCIDENTAL, SPECIAL, EXEMPLARY, OR CONSEQUENTIAL DAMAGES (INCLUDING BUT NOT LIMITED TO
                                 
    28                           ; PROCUREMENT OF SUBSTITUTE GOODS OR SERVICES; LOSS OF USE, DATA OR PROFITS; OR BUSINESS
                                 
    29                           ; INTERRUPTION) HOWSOEVER CAUSED AND ON ANY THEORY OF LIABILITY, WHETHER IN CONTRACT, ST
                                 RICT
    30                           ; LIABILITY, OR TORT (INCLUDING NEGLIGENCE OR OTHERWISE) ARISING IN ANY WAY OUT OF THE U
                                 SE OF
    31                           ; THIS SOFTWARE, EVEN IF ADVISED OF THE POSSIBILITY OF SUCH DAMAGE.
    32                           ; 
    33                           
    34                           
    35                           ; 
    36                           ; Code-generator required, PIC18F45K50 Definitions
    37                           ; 
    38  0000                     fsr0 equ 0FE9h
    39  0000                     fsr0h equ 0FEAh
    40  0000                     fsr0l equ 0FE9h
    41  0000                     fsr1 equ 0FE1h
    42  0000                     fsr1h equ 0FE2h
    43  0000                     fsr1l equ 0FE1h
    44  0000                     fsr2 equ 0FD9h
    45  0000                     fsr2h equ 0FDAh
    46  0000                     fsr2l equ 0FD9h
    47  0000                     indf0 equ 0FEFh
    48  0000                     indf1 equ 0FE7h
    49  0000                     indf2 equ 0FDFh
    50  0000                     intcon equ 0FF2h
    51  0000                     nvmcon equ 00h
    52  0000                     pcl equ 0FF9h
    53  0000                     pclath equ 0FFAh
    54  0000                     pclatu equ 0FFBh
    55  0000                     plusw0 equ 0FEBh
    56  0000                     plusw1 equ 0FE3h
    57  0000                     plusw2 equ 0FDBh
    58  0000                     postdec0 equ 0FEDh
    59  0000                     postdec1 equ 0FE5h
    60  0000                     postdec2 equ 0FDDh
    61  0000                     postinc0 equ 0FEEh
    62  0000                     postinc1 equ 0FE6h
    63  0000                     postinc2 equ 0FDEh
    64  0000                     preinc0 equ 0FECh
    65  0000                     preinc1 equ 0FE4h
    66  0000                     preinc2 equ 0FDCh
    67  0000                     prod equ 0FF3h
    68  0000                     prodh equ 0FF4h
    69  0000                     prodl equ 0FF3h
    70  0000                     status equ 0FD8h
    71  0000                     tablat equ 0FF5h
    72  0000                     tblptr equ 0FF6h
    73  0000                     tblptrh equ 0FF7h
    74  0000                     tblptrl equ 0FF6h
    75  0000                     tblptru equ 0FF8h
    76  0000                     tosl equ 0FFDh
    77  0000                     wreg equ 0FE8h
    78  0000                     
     2                           opt pagewidth 120
     3  0000                     byte0	macro	val
     4                           	(getbyte(val,0))
     5                           endm
     6  0000                     byte1	macro	val
     7                           	(getbyte(val,1))
     8                           endm
     9  0000                     byte2	macro	val
    10                           	(getbyte(val,2))
    11                           endm
    12  0000                     byte3	macro	val
    13                           	(getbyte(val,3))
    14                           endm
    15  0000                     byte4	macro	val
    16                           	(getbyte(val,4))
    17                           endm
    18  0000                     byte5	macro	val
    19                           	(getbyte(val,5))
    20                           endm
    21  0000                     byte6	macro	val
    22                           	(getbyte(val,6))
    23                           endm
    24  0000                     byte7	macro	val
    25                           	(getbyte(val,7))
    26                           endm
    27  0000                     getword	macro	val,pos
    28                           	(((val) >> (8 * pos)) and 0xffff)
    29                           endm
    30  0000                     word0	macro	val
    31                           	(getword(val,0))
    32                           endm
    33  0000                     word1	macro	val
    34                           	(getword(val,2))
    35                           endm
    36  0000                     word2	macro	val
    37                           	(getword(val,4))
    38                           endm
    39  0000                     word3	macro	val
    40                           	(getword(val,6))
    41                           endm
    42  0000                     gettword	macro	val,pos
    43                           	(((val) >> (8 * pos)) and 0xffffff)
    44                           endm
    45  0000                     tword0	macro	val
    46                           	(gettword(val,0))
    47                           endm
    48  0000                     tword1	macro	val
    49                           	(gettword(val,3))
    50                           endm
    51  0000                     tword2	macro	val
    52                           	(gettword(val,6))
    53                           endm
    54  0000                     getdword	macro	val,pos
    55                           	(((val) >> (8 * pos)) and 0xffffffff)
    56                           endm
    57  0000                     dword0	macro	val
    58                           	(getdword(val,0))
    59                           endm
    60  0000                     dword1	macro	val
    61                           	(getdword(val,4))
    62                           endm
    63  0000                     clrc   macro
    64                           	bcf	status,0
    65                           endm
    66  0000                     setc   macro
    67                           	bsf	status,0
    68                           endm
    69  0000                     clrz   macro
    70                           	bcf	status,2
    71                           endm
    72  0000                     setz   macro
    73                           	bsf	status,2
    74                           endm
    75  0000                     skipnz macro
    76                           	btfsc	status,2
    77                           endm
    78  0000                     skipz  macro
    79                           	btfss	status,2
    80                           endm
    81  0000                     skipnc macro
    82                           	btfsc	status,0
    83                           endm
    84  0000                     skipc  macro
    85                           	btfss	status,0
    86                           endm
    87  0000                     pushw macro
    88                           	movwf postinc1
    89                           endm
    90  0000                     pushf macro arg1
    91                           	movff arg1, postinc1
    92                           endm
    93  0000                     popw macro
    94                           	movf postdec1,f
    95                           	movf indf1,w
    96                           endm
    97  0000                     popf macro arg1
    98                           	movf postdec1,f
    99                           	movff indf1,arg1
   100                           endm
   101  0000                     popfc macro arg1
   102                           	movff plusw1,arg1
   103                           	decfsz fsr1,f
   104                           endm
   105  0000                     	global	__ramtop
   106                           	global	__accesstop
   107                           # 54 "/Applications/microchip/xc8/v2.00/pic/include/pic18f45k50.h"
   108                           SRCON1 equ 0F57h ;# 
   109  0000                     # 116 "/Applications/microchip/xc8/v2.00/pic/include/pic18f45k50.h"
   110                           SRCON0 equ 0F58h ;# 
   111  0000                     # 187 "/Applications/microchip/xc8/v2.00/pic/include/pic18f45k50.h"
   112                           CCPTMRS equ 0F59h ;# 
   113  0000                     # 214 "/Applications/microchip/xc8/v2.00/pic/include/pic18f45k50.h"
   114                           VREGCON equ 0F5Ah ;# 
   115  0000                     # 234 "/Applications/microchip/xc8/v2.00/pic/include/pic18f45k50.h"
   116                           ANSELA equ 0F5Bh ;# 
   117  0000                     # 279 "/Applications/microchip/xc8/v2.00/pic/include/pic18f45k50.h"
   118                           ANSELB equ 0F5Ch ;# 
   119  0000                     # 329 "/Applications/microchip/xc8/v2.00/pic/include/pic18f45k50.h"
   120                           ANSELC equ 0F5Dh ;# 
   121  0000                     # 363 "/Applications/microchip/xc8/v2.00/pic/include/pic18f45k50.h"
   122                           ANSELD equ 0F5Eh ;# 
   123  0000                     # 425 "/Applications/microchip/xc8/v2.00/pic/include/pic18f45k50.h"
   124                           ANSELE equ 0F5Fh ;# 
   125  0000                     # 457 "/Applications/microchip/xc8/v2.00/pic/include/pic18f45k50.h"
   126                           UCON equ 0F60h ;# 
   127  0000                     # 508 "/Applications/microchip/xc8/v2.00/pic/include/pic18f45k50.h"
   128                           USTAT equ 0F61h ;# 
   129  0000                     # 568 "/Applications/microchip/xc8/v2.00/pic/include/pic18f45k50.h"
   130                           UCFG equ 0F62h ;# 
   131  0000                     # 647 "/Applications/microchip/xc8/v2.00/pic/include/pic18f45k50.h"
   132                           UADDR equ 0F63h ;# 
   133  0000                     # 711 "/Applications/microchip/xc8/v2.00/pic/include/pic18f45k50.h"
   134                           UIE equ 0F64h ;# 
   135  0000                     # 767 "/Applications/microchip/xc8/v2.00/pic/include/pic18f45k50.h"
   136                           UIR equ 0F65h ;# 
   137  0000                     # 823 "/Applications/microchip/xc8/v2.00/pic/include/pic18f45k50.h"
   138                           UEIE equ 0F66h ;# 
   139  0000                     # 874 "/Applications/microchip/xc8/v2.00/pic/include/pic18f45k50.h"
   140                           UEIR equ 0F67h ;# 
   141  0000                     # 925 "/Applications/microchip/xc8/v2.00/pic/include/pic18f45k50.h"
   142                           UFRM equ 0F68h ;# 
   143  0000                     # 932 "/Applications/microchip/xc8/v2.00/pic/include/pic18f45k50.h"
   144                           UFRML equ 0F68h ;# 
   145  0000                     # 1010 "/Applications/microchip/xc8/v2.00/pic/include/pic18f45k50.h"
   146                           UFRMH equ 0F69h ;# 
   147  0000                     # 1050 "/Applications/microchip/xc8/v2.00/pic/include/pic18f45k50.h"
   148                           UEP0 equ 0F6Ah ;# 
   149  0000                     # 1158 "/Applications/microchip/xc8/v2.00/pic/include/pic18f45k50.h"
   150                           UEP1 equ 0F6Bh ;# 
   151  0000                     # 1266 "/Applications/microchip/xc8/v2.00/pic/include/pic18f45k50.h"
   152                           UEP2 equ 0F6Ch ;# 
   153  0000                     # 1374 "/Applications/microchip/xc8/v2.00/pic/include/pic18f45k50.h"
   154                           UEP3 equ 0F6Dh ;# 
   155  0000                     # 1482 "/Applications/microchip/xc8/v2.00/pic/include/pic18f45k50.h"
   156                           UEP4 equ 0F6Eh ;# 
   157  0000                     # 1590 "/Applications/microchip/xc8/v2.00/pic/include/pic18f45k50.h"
   158                           UEP5 equ 0F6Fh ;# 
   159  0000                     # 1698 "/Applications/microchip/xc8/v2.00/pic/include/pic18f45k50.h"
   160                           UEP6 equ 0F70h ;# 
   161  0000                     # 1806 "/Applications/microchip/xc8/v2.00/pic/include/pic18f45k50.h"
   162                           UEP7 equ 0F71h ;# 
   163  0000                     # 1914 "/Applications/microchip/xc8/v2.00/pic/include/pic18f45k50.h"
   164                           UEP8 equ 0F72h ;# 
   165  0000                     # 1990 "/Applications/microchip/xc8/v2.00/pic/include/pic18f45k50.h"
   166                           UEP9 equ 0F73h ;# 
   167  0000                     # 2066 "/Applications/microchip/xc8/v2.00/pic/include/pic18f45k50.h"
   168                           UEP10 equ 0F74h ;# 
   169  0000                     # 2142 "/Applications/microchip/xc8/v2.00/pic/include/pic18f45k50.h"
   170                           UEP11 equ 0F75h ;# 
   171  0000                     # 2218 "/Applications/microchip/xc8/v2.00/pic/include/pic18f45k50.h"
   172                           UEP12 equ 0F76h ;# 
   173  0000                     # 2294 "/Applications/microchip/xc8/v2.00/pic/include/pic18f45k50.h"
   174                           UEP13 equ 0F77h ;# 
   175  0000                     # 2370 "/Applications/microchip/xc8/v2.00/pic/include/pic18f45k50.h"
   176                           UEP14 equ 0F78h ;# 
   177  0000                     # 2446 "/Applications/microchip/xc8/v2.00/pic/include/pic18f45k50.h"
   178                           UEP15 equ 0F79h ;# 
   179  0000                     # 2522 "/Applications/microchip/xc8/v2.00/pic/include/pic18f45k50.h"
   180                           SLRCON equ 0F7Ah ;# 
   181  0000                     # 2566 "/Applications/microchip/xc8/v2.00/pic/include/pic18f45k50.h"
   182                           VREFCON2 equ 0F7Bh ;# 
   183  0000                     # 2618 "/Applications/microchip/xc8/v2.00/pic/include/pic18f45k50.h"
   184                           VREFCON1 equ 0F7Ch ;# 
   185  0000                     # 2679 "/Applications/microchip/xc8/v2.00/pic/include/pic18f45k50.h"
   186                           VREFCON0 equ 0F7Dh ;# 
   187  0000                     # 2739 "/Applications/microchip/xc8/v2.00/pic/include/pic18f45k50.h"
   188                           PMD0 equ 0F7Eh ;# 
   189  0000                     # 2821 "/Applications/microchip/xc8/v2.00/pic/include/pic18f45k50.h"
   190                           PMD1 equ 0F7Fh ;# 
   191  0000                     # 2903 "/Applications/microchip/xc8/v2.00/pic/include/pic18f45k50.h"
   192                           PORTA equ 0F80h ;# 
   193  0000                     # 3055 "/Applications/microchip/xc8/v2.00/pic/include/pic18f45k50.h"
   194                           PORTB equ 0F81h ;# 
   195  0000                     # 3165 "/Applications/microchip/xc8/v2.00/pic/include/pic18f45k50.h"
   196                           PORTC equ 0F82h ;# 
   197  0000                     # 3307 "/Applications/microchip/xc8/v2.00/pic/include/pic18f45k50.h"
   198                           PORTD equ 0F83h ;# 
   199  0000                     # 3428 "/Applications/microchip/xc8/v2.00/pic/include/pic18f45k50.h"
   200                           PORTE equ 0F84h ;# 
   201  0000                     # 3547 "/Applications/microchip/xc8/v2.00/pic/include/pic18f45k50.h"
   202                           WPUB equ 0F85h ;# 
   203  0000                     # 3609 "/Applications/microchip/xc8/v2.00/pic/include/pic18f45k50.h"
   204                           IOCB equ 0F86h ;# 
   205  0000                     # 3648 "/Applications/microchip/xc8/v2.00/pic/include/pic18f45k50.h"
   206                           IOCC equ 0F87h ;# 
   207  0000                     # 3705 "/Applications/microchip/xc8/v2.00/pic/include/pic18f45k50.h"
   208                           CTMUICON equ 0F88h ;# 
   209  0000                     # 3781 "/Applications/microchip/xc8/v2.00/pic/include/pic18f45k50.h"
   210                           LATA equ 0F89h ;# 
   211  0000                     # 3893 "/Applications/microchip/xc8/v2.00/pic/include/pic18f45k50.h"
   212                           LATB equ 0F8Ah ;# 
   213  0000                     # 4005 "/Applications/microchip/xc8/v2.00/pic/include/pic18f45k50.h"
   214                           LATC equ 0F8Bh ;# 
   215  0000                     # 4107 "/Applications/microchip/xc8/v2.00/pic/include/pic18f45k50.h"
   216                           LATD equ 0F8Ch ;# 
   217  0000                     # 4219 "/Applications/microchip/xc8/v2.00/pic/include/pic18f45k50.h"
   218                           LATE equ 0F8Dh ;# 
   219  0000                     # 4271 "/Applications/microchip/xc8/v2.00/pic/include/pic18f45k50.h"
   220                           CTMUCONL equ 0F8Eh ;# 
   221  0000                     # 4276 "/Applications/microchip/xc8/v2.00/pic/include/pic18f45k50.h"
   222                           CTMUCON1 equ 0F8Eh ;# 
   223  0000                     # 4425 "/Applications/microchip/xc8/v2.00/pic/include/pic18f45k50.h"
   224                           CTMUCONH equ 0F8Fh ;# 
   225  0000                     # 4430 "/Applications/microchip/xc8/v2.00/pic/include/pic18f45k50.h"
   226                           CTMUCON0 equ 0F8Fh ;# 
   227  0000                     # 4581 "/Applications/microchip/xc8/v2.00/pic/include/pic18f45k50.h"
   228                           CCPR2 equ 0F90h ;# 
   229  0000                     # 4588 "/Applications/microchip/xc8/v2.00/pic/include/pic18f45k50.h"
   230                           CCPR2L equ 0F90h ;# 
   231  0000                     # 4608 "/Applications/microchip/xc8/v2.00/pic/include/pic18f45k50.h"
   232                           CCPR2H equ 0F91h ;# 
   233  0000                     # 4628 "/Applications/microchip/xc8/v2.00/pic/include/pic18f45k50.h"
   234                           TRISA equ 0F92h ;# 
   235  0000                     # 4633 "/Applications/microchip/xc8/v2.00/pic/include/pic18f45k50.h"
   236                           DDRA equ 0F92h ;# 
   237  0000                     # 4850 "/Applications/microchip/xc8/v2.00/pic/include/pic18f45k50.h"
   238                           TRISB equ 0F93h ;# 
   239  0000                     # 4855 "/Applications/microchip/xc8/v2.00/pic/include/pic18f45k50.h"
   240                           DDRB equ 0F93h ;# 
   241  0000                     # 5072 "/Applications/microchip/xc8/v2.00/pic/include/pic18f45k50.h"
   242                           TRISC equ 0F94h ;# 
   243  0000                     # 5077 "/Applications/microchip/xc8/v2.00/pic/include/pic18f45k50.h"
   244                           DDRC equ 0F94h ;# 
   245  0000                     # 5250 "/Applications/microchip/xc8/v2.00/pic/include/pic18f45k50.h"
   246                           TRISD equ 0F95h ;# 
   247  0000                     # 5255 "/Applications/microchip/xc8/v2.00/pic/include/pic18f45k50.h"
   248                           DDRD equ 0F95h ;# 
   249  0000                     # 5472 "/Applications/microchip/xc8/v2.00/pic/include/pic18f45k50.h"
   250                           TRISE equ 0F96h ;# 
   251  0000                     # 5477 "/Applications/microchip/xc8/v2.00/pic/include/pic18f45k50.h"
   252                           DDRE equ 0F96h ;# 
   253  0000                     # 5588 "/Applications/microchip/xc8/v2.00/pic/include/pic18f45k50.h"
   254                           CCP2CON equ 0F97h ;# 
   255  0000                     # 5593 "/Applications/microchip/xc8/v2.00/pic/include/pic18f45k50.h"
   256                           ECCP2CON equ 0F97h ;# 
   257  0000                     # 5744 "/Applications/microchip/xc8/v2.00/pic/include/pic18f45k50.h"
   258                           CM1CON0 equ 0F98h ;# 
   259  0000                     # 5867 "/Applications/microchip/xc8/v2.00/pic/include/pic18f45k50.h"
   260                           CM2CON0 equ 0F99h ;# 
   261  0000                     # 5990 "/Applications/microchip/xc8/v2.00/pic/include/pic18f45k50.h"
   262                           CM2CON1 equ 0F9Ah ;# 
   263  0000                     # 6052 "/Applications/microchip/xc8/v2.00/pic/include/pic18f45k50.h"
   264                           OSCTUNE equ 0F9Bh ;# 
   265  0000                     # 6122 "/Applications/microchip/xc8/v2.00/pic/include/pic18f45k50.h"
   266                           HLVDCON equ 0F9Ch ;# 
   267  0000                     # 6192 "/Applications/microchip/xc8/v2.00/pic/include/pic18f45k50.h"
   268                           PIE1 equ 0F9Dh ;# 
   269  0000                     # 6291 "/Applications/microchip/xc8/v2.00/pic/include/pic18f45k50.h"
   270                           PIR1 equ 0F9Eh ;# 
   271  0000                     # 6390 "/Applications/microchip/xc8/v2.00/pic/include/pic18f45k50.h"
   272                           IPR1 equ 0F9Fh ;# 
   273  0000                     # 6489 "/Applications/microchip/xc8/v2.00/pic/include/pic18f45k50.h"
   274                           PIE2 equ 0FA0h ;# 
   275  0000                     # 6588 "/Applications/microchip/xc8/v2.00/pic/include/pic18f45k50.h"
   276                           PIR2 equ 0FA1h ;# 
   277  0000                     # 6687 "/Applications/microchip/xc8/v2.00/pic/include/pic18f45k50.h"
   278                           IPR2 equ 0FA2h ;# 
   279  0000                     # 6786 "/Applications/microchip/xc8/v2.00/pic/include/pic18f45k50.h"
   280                           PIE3 equ 0FA3h ;# 
   281  0000                     # 6859 "/Applications/microchip/xc8/v2.00/pic/include/pic18f45k50.h"
   282                           PIR3 equ 0FA4h ;# 
   283  0000                     # 6906 "/Applications/microchip/xc8/v2.00/pic/include/pic18f45k50.h"
   284                           IPR3 equ 0FA5h ;# 
   285  0000                     # 6953 "/Applications/microchip/xc8/v2.00/pic/include/pic18f45k50.h"
   286                           EECON1 equ 0FA6h ;# 
   287  0000                     # 7019 "/Applications/microchip/xc8/v2.00/pic/include/pic18f45k50.h"
   288                           EECON2 equ 0FA7h ;# 
   289  0000                     # 7039 "/Applications/microchip/xc8/v2.00/pic/include/pic18f45k50.h"
   290                           EEDATA equ 0FA8h ;# 
   291  0000                     # 7046 "/Applications/microchip/xc8/v2.00/pic/include/pic18f45k50.h"
   292                           EEADR equ 0FA9h ;# 
   293  0000                     # 7053 "/Applications/microchip/xc8/v2.00/pic/include/pic18f45k50.h"
   294                           RCSTA1 equ 0FABh ;# 
   295  0000                     # 7058 "/Applications/microchip/xc8/v2.00/pic/include/pic18f45k50.h"
   296                           RCSTA equ 0FABh ;# 
   297  0000                     # 7259 "/Applications/microchip/xc8/v2.00/pic/include/pic18f45k50.h"
   298                           TXSTA1 equ 0FACh ;# 
   299  0000                     # 7264 "/Applications/microchip/xc8/v2.00/pic/include/pic18f45k50.h"
   300                           TXSTA equ 0FACh ;# 
   301  0000                     # 7553 "/Applications/microchip/xc8/v2.00/pic/include/pic18f45k50.h"
   302                           TXREG1 equ 0FADh ;# 
   303  0000                     # 7558 "/Applications/microchip/xc8/v2.00/pic/include/pic18f45k50.h"
   304                           TXREG equ 0FADh ;# 
   305  0000                     # 7591 "/Applications/microchip/xc8/v2.00/pic/include/pic18f45k50.h"
   306                           RCREG1 equ 0FAEh ;# 
   307  0000                     # 7596 "/Applications/microchip/xc8/v2.00/pic/include/pic18f45k50.h"
   308                           RCREG equ 0FAEh ;# 
   309  0000                     # 7629 "/Applications/microchip/xc8/v2.00/pic/include/pic18f45k50.h"
   310                           SPBRG1 equ 0FAFh ;# 
   311  0000                     # 7634 "/Applications/microchip/xc8/v2.00/pic/include/pic18f45k50.h"
   312                           SPBRG equ 0FAFh ;# 
   313  0000                     # 7767 "/Applications/microchip/xc8/v2.00/pic/include/pic18f45k50.h"
   314                           SPBRGH1 equ 0FB0h ;# 
   315  0000                     # 7772 "/Applications/microchip/xc8/v2.00/pic/include/pic18f45k50.h"
   316                           SPBRGH equ 0FB0h ;# 
   317  0000                     # 7905 "/Applications/microchip/xc8/v2.00/pic/include/pic18f45k50.h"
   318                           T3CON equ 0FB1h ;# 
   319  0000                     # 8034 "/Applications/microchip/xc8/v2.00/pic/include/pic18f45k50.h"
   320                           TMR3 equ 0FB2h ;# 
   321  0000                     # 8041 "/Applications/microchip/xc8/v2.00/pic/include/pic18f45k50.h"
   322                           TMR3L equ 0FB2h ;# 
   323  0000                     # 8061 "/Applications/microchip/xc8/v2.00/pic/include/pic18f45k50.h"
   324                           TMR3H equ 0FB3h ;# 
   325  0000                     # 8081 "/Applications/microchip/xc8/v2.00/pic/include/pic18f45k50.h"
   326                           T3GCON equ 0FB4h ;# 
   327  0000                     # 8212 "/Applications/microchip/xc8/v2.00/pic/include/pic18f45k50.h"
   328                           ACTCON equ 0FB5h ;# 
   329  0000                     # 8217 "/Applications/microchip/xc8/v2.00/pic/include/pic18f45k50.h"
   330                           STCON equ 0FB5h ;# 
   331  0000                     # 8418 "/Applications/microchip/xc8/v2.00/pic/include/pic18f45k50.h"
   332                           ECCP1AS equ 0FB6h ;# 
   333  0000                     # 8552 "/Applications/microchip/xc8/v2.00/pic/include/pic18f45k50.h"
   334                           PWM1CON equ 0FB7h ;# 
   335  0000                     # 8557 "/Applications/microchip/xc8/v2.00/pic/include/pic18f45k50.h"
   336                           ECCP1DEL equ 0FB7h ;# 
   337  0000                     # 8702 "/Applications/microchip/xc8/v2.00/pic/include/pic18f45k50.h"
   338                           BAUDCON1 equ 0FB8h ;# 
   339  0000                     # 8707 "/Applications/microchip/xc8/v2.00/pic/include/pic18f45k50.h"
   340                           BAUDCON equ 0FB8h ;# 
   341  0000                     # 8711 "/Applications/microchip/xc8/v2.00/pic/include/pic18f45k50.h"
   342                           BAUDCTL equ 0FB8h ;# 
   343  0000                     # 9212 "/Applications/microchip/xc8/v2.00/pic/include/pic18f45k50.h"
   344                           PSTR1CON equ 0FB9h ;# 
   345  0000                     # 9288 "/Applications/microchip/xc8/v2.00/pic/include/pic18f45k50.h"
   346                           T2CON equ 0FBAh ;# 
   347  0000                     # 9359 "/Applications/microchip/xc8/v2.00/pic/include/pic18f45k50.h"
   348                           PR2 equ 0FBBh ;# 
   349  0000                     # 9379 "/Applications/microchip/xc8/v2.00/pic/include/pic18f45k50.h"
   350                           TMR2 equ 0FBCh ;# 
   351  0000                     # 9399 "/Applications/microchip/xc8/v2.00/pic/include/pic18f45k50.h"
   352                           CCP1CON equ 0FBDh ;# 
   353  0000                     # 9404 "/Applications/microchip/xc8/v2.00/pic/include/pic18f45k50.h"
   354                           ECCP1CON equ 0FBDh ;# 
   355  0000                     # 9591 "/Applications/microchip/xc8/v2.00/pic/include/pic18f45k50.h"
   356                           CCPR1 equ 0FBEh ;# 
   357  0000                     # 9598 "/Applications/microchip/xc8/v2.00/pic/include/pic18f45k50.h"
   358                           CCPR1L equ 0FBEh ;# 
   359  0000                     # 9618 "/Applications/microchip/xc8/v2.00/pic/include/pic18f45k50.h"
   360                           CCPR1H equ 0FBFh ;# 
   361  0000                     # 9638 "/Applications/microchip/xc8/v2.00/pic/include/pic18f45k50.h"
   362                           ADCON2 equ 0FC0h ;# 
   363  0000                     # 9709 "/Applications/microchip/xc8/v2.00/pic/include/pic18f45k50.h"
   364                           ADCON1 equ 0FC1h ;# 
   365  0000                     # 9777 "/Applications/microchip/xc8/v2.00/pic/include/pic18f45k50.h"
   366                           ADCON0 equ 0FC2h ;# 
   367  0000                     # 9872 "/Applications/microchip/xc8/v2.00/pic/include/pic18f45k50.h"
   368                           ADRESL equ 0FC3h ;# 
   369  0000                     # 9879 "/Applications/microchip/xc8/v2.00/pic/include/pic18f45k50.h"
   370                           ADRESH equ 0FC4h ;# 
   371  0000                     # 9886 "/Applications/microchip/xc8/v2.00/pic/include/pic18f45k50.h"
   372                           SSP1CON2 equ 0FC5h ;# 
   373  0000                     # 9891 "/Applications/microchip/xc8/v2.00/pic/include/pic18f45k50.h"
   374                           SSPCON2 equ 0FC5h ;# 
   375  0000                     # 10240 "/Applications/microchip/xc8/v2.00/pic/include/pic18f45k50.h"
   376                           SSP1CON1 equ 0FC6h ;# 
   377  0000                     # 10245 "/Applications/microchip/xc8/v2.00/pic/include/pic18f45k50.h"
   378                           SSPCON equ 0FC6h ;# 
   379  0000                     # 10249 "/Applications/microchip/xc8/v2.00/pic/include/pic18f45k50.h"
   380                           SSPCON1 equ 0FC6h ;# 
   381  0000                     # 10594 "/Applications/microchip/xc8/v2.00/pic/include/pic18f45k50.h"
   382                           SSP1STAT equ 0FC7h ;# 
   383  0000                     # 10599 "/Applications/microchip/xc8/v2.00/pic/include/pic18f45k50.h"
   384                           SSPSTAT equ 0FC7h ;# 
   385  0000                     # 11192 "/Applications/microchip/xc8/v2.00/pic/include/pic18f45k50.h"
   386                           SSP1ADD equ 0FC8h ;# 
   387  0000                     # 11197 "/Applications/microchip/xc8/v2.00/pic/include/pic18f45k50.h"
   388                           SSPADD equ 0FC8h ;# 
   389  0000                     # 11530 "/Applications/microchip/xc8/v2.00/pic/include/pic18f45k50.h"
   390                           SSP1BUF equ 0FC9h ;# 
   391  0000                     # 11535 "/Applications/microchip/xc8/v2.00/pic/include/pic18f45k50.h"
   392                           SSPBUF equ 0FC9h ;# 
   393  0000                     # 11568 "/Applications/microchip/xc8/v2.00/pic/include/pic18f45k50.h"
   394                           SSP1MSK equ 0FCAh ;# 
   395  0000                     # 11573 "/Applications/microchip/xc8/v2.00/pic/include/pic18f45k50.h"
   396                           SSPMSK equ 0FCAh ;# 
   397  0000                     # 11706 "/Applications/microchip/xc8/v2.00/pic/include/pic18f45k50.h"
   398                           SSP1CON3 equ 0FCBh ;# 
   399  0000                     # 11711 "/Applications/microchip/xc8/v2.00/pic/include/pic18f45k50.h"
   400                           SSPCON3 equ 0FCBh ;# 
   401  0000                     # 11828 "/Applications/microchip/xc8/v2.00/pic/include/pic18f45k50.h"
   402                           T1GCON equ 0FCCh ;# 
   403  0000                     # 11959 "/Applications/microchip/xc8/v2.00/pic/include/pic18f45k50.h"
   404                           T1CON equ 0FCDh ;# 
   405  0000                     # 12088 "/Applications/microchip/xc8/v2.00/pic/include/pic18f45k50.h"
   406                           TMR1 equ 0FCEh ;# 
   407  0000                     # 12095 "/Applications/microchip/xc8/v2.00/pic/include/pic18f45k50.h"
   408                           TMR1L equ 0FCEh ;# 
   409  0000                     # 12115 "/Applications/microchip/xc8/v2.00/pic/include/pic18f45k50.h"
   410                           TMR1H equ 0FCFh ;# 
   411  0000                     # 12135 "/Applications/microchip/xc8/v2.00/pic/include/pic18f45k50.h"
   412                           RCON equ 0FD0h ;# 
   413  0000                     # 12268 "/Applications/microchip/xc8/v2.00/pic/include/pic18f45k50.h"
   414                           WDTCON equ 0FD1h ;# 
   415  0000                     # 12296 "/Applications/microchip/xc8/v2.00/pic/include/pic18f45k50.h"
   416                           OSCCON2 equ 0FD2h ;# 
   417  0000                     # 12358 "/Applications/microchip/xc8/v2.00/pic/include/pic18f45k50.h"
   418                           OSCCON equ 0FD3h ;# 
   419  0000                     # 12441 "/Applications/microchip/xc8/v2.00/pic/include/pic18f45k50.h"
   420                           T0CON equ 0FD5h ;# 
   421  0000                     # 12511 "/Applications/microchip/xc8/v2.00/pic/include/pic18f45k50.h"
   422                           TMR0 equ 0FD6h ;# 
   423  0000                     # 12518 "/Applications/microchip/xc8/v2.00/pic/include/pic18f45k50.h"
   424                           TMR0L equ 0FD6h ;# 
   425  0000                     # 12538 "/Applications/microchip/xc8/v2.00/pic/include/pic18f45k50.h"
   426                           TMR0H equ 0FD7h ;# 
   427  0000                     # 12558 "/Applications/microchip/xc8/v2.00/pic/include/pic18f45k50.h"
   428                           STATUS equ 0FD8h ;# 
   429  0000                     # 12629 "/Applications/microchip/xc8/v2.00/pic/include/pic18f45k50.h"
   430                           FSR2 equ 0FD9h ;# 
   431  0000                     # 12636 "/Applications/microchip/xc8/v2.00/pic/include/pic18f45k50.h"
   432                           FSR2L equ 0FD9h ;# 
   433  0000                     # 12656 "/Applications/microchip/xc8/v2.00/pic/include/pic18f45k50.h"
   434                           FSR2H equ 0FDAh ;# 
   435  0000                     # 12663 "/Applications/microchip/xc8/v2.00/pic/include/pic18f45k50.h"
   436                           PLUSW2 equ 0FDBh ;# 
   437  0000                     # 12683 "/Applications/microchip/xc8/v2.00/pic/include/pic18f45k50.h"
   438                           PREINC2 equ 0FDCh ;# 
   439  0000                     # 12703 "/Applications/microchip/xc8/v2.00/pic/include/pic18f45k50.h"
   440                           POSTDEC2 equ 0FDDh ;# 
   441  0000                     # 12723 "/Applications/microchip/xc8/v2.00/pic/include/pic18f45k50.h"
   442                           POSTINC2 equ 0FDEh ;# 
   443  0000                     # 12743 "/Applications/microchip/xc8/v2.00/pic/include/pic18f45k50.h"
   444                           INDF2 equ 0FDFh ;# 
   445  0000                     # 12763 "/Applications/microchip/xc8/v2.00/pic/include/pic18f45k50.h"
   446                           BSR equ 0FE0h ;# 
   447  0000                     # 12770 "/Applications/microchip/xc8/v2.00/pic/include/pic18f45k50.h"
   448                           FSR1 equ 0FE1h ;# 
   449  0000                     # 12777 "/Applications/microchip/xc8/v2.00/pic/include/pic18f45k50.h"
   450                           FSR1L equ 0FE1h ;# 
   451  0000                     # 12797 "/Applications/microchip/xc8/v2.00/pic/include/pic18f45k50.h"
   452                           FSR1H equ 0FE2h ;# 
   453  0000                     # 12804 "/Applications/microchip/xc8/v2.00/pic/include/pic18f45k50.h"
   454                           PLUSW1 equ 0FE3h ;# 
   455  0000                     # 12824 "/Applications/microchip/xc8/v2.00/pic/include/pic18f45k50.h"
   456                           PREINC1 equ 0FE4h ;# 
   457  0000                     # 12844 "/Applications/microchip/xc8/v2.00/pic/include/pic18f45k50.h"
   458                           POSTDEC1 equ 0FE5h ;# 
   459  0000                     # 12864 "/Applications/microchip/xc8/v2.00/pic/include/pic18f45k50.h"
   460                           POSTINC1 equ 0FE6h ;# 
   461  0000                     # 12884 "/Applications/microchip/xc8/v2.00/pic/include/pic18f45k50.h"
   462                           INDF1 equ 0FE7h ;# 
   463  0000                     # 12904 "/Applications/microchip/xc8/v2.00/pic/include/pic18f45k50.h"
   464                           WREG equ 0FE8h ;# 
   465  0000                     # 12924 "/Applications/microchip/xc8/v2.00/pic/include/pic18f45k50.h"
   466                           FSR0 equ 0FE9h ;# 
   467  0000                     # 12931 "/Applications/microchip/xc8/v2.00/pic/include/pic18f45k50.h"
   468                           FSR0L equ 0FE9h ;# 
   469  0000                     # 12951 "/Applications/microchip/xc8/v2.00/pic/include/pic18f45k50.h"
   470                           FSR0H equ 0FEAh ;# 
   471  0000                     # 12958 "/Applications/microchip/xc8/v2.00/pic/include/pic18f45k50.h"
   472                           PLUSW0 equ 0FEBh ;# 
   473  0000                     # 12978 "/Applications/microchip/xc8/v2.00/pic/include/pic18f45k50.h"
   474                           PREINC0 equ 0FECh ;# 
   475  0000                     # 12998 "/Applications/microchip/xc8/v2.00/pic/include/pic18f45k50.h"
   476                           POSTDEC0 equ 0FEDh ;# 
   477  0000                     # 13018 "/Applications/microchip/xc8/v2.00/pic/include/pic18f45k50.h"
   478                           POSTINC0 equ 0FEEh ;# 
   479  0000                     # 13038 "/Applications/microchip/xc8/v2.00/pic/include/pic18f45k50.h"
   480                           INDF0 equ 0FEFh ;# 
   481  0000                     # 13058 "/Applications/microchip/xc8/v2.00/pic/include/pic18f45k50.h"
   482                           INTCON3 equ 0FF0h ;# 
   483  0000                     # 13150 "/Applications/microchip/xc8/v2.00/pic/include/pic18f45k50.h"
   484                           INTCON2 equ 0FF1h ;# 
   485  0000                     # 13227 "/Applications/microchip/xc8/v2.00/pic/include/pic18f45k50.h"
   486                           INTCON equ 0FF2h ;# 
   487  0000                     # 13344 "/Applications/microchip/xc8/v2.00/pic/include/pic18f45k50.h"
   488                           PROD equ 0FF3h ;# 
   489  0000                     # 13351 "/Applications/microchip/xc8/v2.00/pic/include/pic18f45k50.h"
   490                           PRODL equ 0FF3h ;# 
   491  0000                     # 13371 "/Applications/microchip/xc8/v2.00/pic/include/pic18f45k50.h"
   492                           PRODH equ 0FF4h ;# 
   493  0000                     # 13391 "/Applications/microchip/xc8/v2.00/pic/include/pic18f45k50.h"
   494                           TABLAT equ 0FF5h ;# 
   495  0000                     # 13413 "/Applications/microchip/xc8/v2.00/pic/include/pic18f45k50.h"
   496                           TBLPTR equ 0FF6h ;# 
   497  0000                     # 13420 "/Applications/microchip/xc8/v2.00/pic/include/pic18f45k50.h"
   498                           TBLPTRL equ 0FF6h ;# 
   499  0000                     # 13440 "/Applications/microchip/xc8/v2.00/pic/include/pic18f45k50.h"
   500                           TBLPTRH equ 0FF7h ;# 
   501  0000                     # 13460 "/Applications/microchip/xc8/v2.00/pic/include/pic18f45k50.h"
   502                           TBLPTRU equ 0FF8h ;# 
   503  0000                     # 13469 "/Applications/microchip/xc8/v2.00/pic/include/pic18f45k50.h"
   504                           PCLAT equ 0FF9h ;# 
   505  0000                     # 13476 "/Applications/microchip/xc8/v2.00/pic/include/pic18f45k50.h"
   506                           PC equ 0FF9h ;# 
   507  0000                     # 13483 "/Applications/microchip/xc8/v2.00/pic/include/pic18f45k50.h"
   508                           PCL equ 0FF9h ;# 
   509  0000                     # 13503 "/Applications/microchip/xc8/v2.00/pic/include/pic18f45k50.h"
   510                           PCLATH equ 0FFAh ;# 
   511  0000                     # 13523 "/Applications/microchip/xc8/v2.00/pic/include/pic18f45k50.h"
   512                           PCLATU equ 0FFBh ;# 
   513  0000                     # 13530 "/Applications/microchip/xc8/v2.00/pic/include/pic18f45k50.h"
   514                           STKPTR equ 0FFCh ;# 
   515  0000                     # 13604 "/Applications/microchip/xc8/v2.00/pic/include/pic18f45k50.h"
   516                           TOS equ 0FFDh ;# 
   517  0000                     # 13611 "/Applications/microchip/xc8/v2.00/pic/include/pic18f45k50.h"
   518                           TOSL equ 0FFDh ;# 
   519  0000                     # 13631 "/Applications/microchip/xc8/v2.00/pic/include/pic18f45k50.h"
   520                           TOSH equ 0FFEh ;# 
   521  0000                     # 13651 "/Applications/microchip/xc8/v2.00/pic/include/pic18f45k50.h"
   522                           TOSU equ 0FFFh ;# 
   523  0000                     	FNCALL	_main,_LCD_Init
   524                           	FNCALL	_main,_LCD_String_xy
   525                           	FNCALL	_main,_MSdelay
   526                           	FNCALL	_main,_USART_Init
   527                           	FNCALL	_main,_USART_SendString
   528                           	FNCALL	_main,_bluetoothint
   529                           	FNCALL	_bluetoothint,_USART_SendString
   530                           	FNCALL	_bluetoothint,_mspeedfunc
   531                           	FNCALL	_USART_SendString,_USART_TransmitChar
   532                           	FNCALL	_USART_Init,___fladd
   533                           	FNCALL	_USART_Init,___fldiv
   534                           	FNCALL	_USART_Init,___fltol
   535                           	FNCALL	_USART_Init,___xxtofl
   536                           	FNCALL	_LCD_String_xy,_LCD_Command
   537                           	FNCALL	_LCD_String_xy,_LCD_String
   538                           	FNCALL	_LCD_String,_LCD_Char
   539                           	FNCALL	_LCD_Char,_MSdelay_L
   540                           	FNCALL	_LCD_Init,_LCD_Command
   541                           	FNCALL	_LCD_Init,_MSdelay_L
   542                           	FNCALL	_LCD_Command,_MSdelay_L
   543                           	FNROOT	_main
   544                           	global	_BT_data_in
   545                           psect	idataCOMRAM,class=CODE,space=0,delta=1,noexec
   546                           global __pidataCOMRAM
   547                           __pidataCOMRAM:
   548  001C72                     	file	"RF_HC05.c"
   549                           	line	33
   550                           
   551                           ;initializer for _BT_data_in
   552                           	db	low(030h)
   553  001C72  30                 	global	_fbtext
   554                           	global	_mspeedval
   555                           	global	_ANSELC
   556                           _ANSELC	set	0xF5D
   557  0000                     	global	_LATDbits
   558                           _LATDbits	set	0xF8C
   559  0000                     	global	_LATB
   560                           _LATB	set	0xF8A
   561  0000                     	global	_TRISB
   562                           _TRISB	set	0xF93
   563  0000                     	global	_CCP2CON
   564                           _CCP2CON	set	0xF97
   565  0000                     	global	_CCPR2L
   566                           _CCPR2L	set	0xF90
   567  0000                     	global	_CCP1CON
   568                           _CCP1CON	set	0xFBD
   569  0000                     	global	_CCPR1L
   570                           _CCPR1L	set	0xFBE
   571  0000                     	global	_T2CON
   572                           _T2CON	set	0xFBA
   573  0000                     	global	_TRISD
   574                           _TRISD	set	0xF95
   575  0000                     	global	_PR2
   576                           _PR2	set	0xFBB
   577  0000                     	global	_PORTCbits
   578                           _PORTCbits	set	0xF82
   579  0000                     	global	_OSCCON
   580                           _OSCCON	set	0xFD3
   581  0000                     	global	_RCREG
   582                           _RCREG	set	0xFAE
   583  0000                     	global	_TXREG
   584                           _TXREG	set	0xFAD
   585  0000                     	global	_RCSTA
   586                           _RCSTA	set	0xFAB
   587  0000                     	global	_TXSTA
   588                           _TXSTA	set	0xFAC
   589  0000                     	global	_SPBRG
   590                           _SPBRG	set	0xFAF
   591  0000                     	global	_LATB1
   592                           _LATB1	set	0x7C51
   593  0000                     	global	_LATB0
   594                           _LATB0	set	0x7C50
   595  0000                     	global	_TRISC2
   596                           _TRISC2	set	0x7CA2
   597  0000                     	global	_TRISC1
   598                           _TRISC1	set	0x7CA1
   599  0000                     	global	_RCIF
   600                           _RCIF	set	0x7CF5
   601  0000                     	global	_TXIF
   602                           _TXIF	set	0x7CF4
   603  0000                     	global	_TRISC7
   604                           _TRISC7	set	0x7CA7
   605  0000                     	global	_TRISC6
   606                           _TRISC6	set	0x7CA6
   607  0000                     psect	smallconst,class=SMALLCONST,space=0,reloc=2,noexec
   608                           global __psmallconst
   609                           __psmallconst:
   610  000800                     	db	0
   611  000800  00                 	
   612                           STR_8:
   613  000801                     	db	32
   614  000801  20                 	db	32
   615  000802  20                 	db	84	;'T'
   616  000803  54                 	db	69	;'E'
   617  000804  45                 	db	83	;'S'
   618  000805  53                 	db	76	;'L'
   619  000806  4C                 	db	65	;'A'
   620  000807  41                 	db	32
   621  000808  20                 	db	86	;'V'
   622  000809  56                 	db	50	;'2'
   623  00080A  32                 	db	46
   624  00080B  2E                 	db	48	;'0'
   625  00080C  30                 	db	32
   626  00080D  20                 	db	32
   627  00080E  20                 	db	32
   628  00080F  20                 	db	32
   629  000810  20                 	db	32
   630  000811  20                 	db	0
   631  000812  00                 	
   632                           STR_6:
   633  000813                     	db	83	;'S'
   634  000813  53                 	db	99	;'c'
   635  000814  63                 	db	104	;'h'
   636  000815  68                 	db	111	;'o'
   637  000816  6F                 	db	111	;'o'
   638  000817  6F                 	db	108	;'l'
   639  000818  6C                 	db	90	;'Z'
   640  000819  5A                 	db	111	;'o'
   641  00081A  6F                 	db	110	;'n'
   642  00081B  6E                 	db	101	;'e'
   643  00081C  65                 	db	32
   644  00081D  20                 	db	50	;'2'
   645  00081E  32                 	db	48	;'0'
   646  00081F  30                 	db	77	;'M'
   647  000820  4D                 	db	80	;'P'
   648  000821  50                 	db	72	;'H'
   649  000822  48                 	db	0
   650  000823  00                 	
   651                           STR_7:
   652  000824                     	db	32
   653  000824  20                 	db	87	;'W'
   654  000825  57                 	db	69	;'E'
   655  000826  45                 	db	76	;'L'
   656  000827  4C                 	db	67	;'C'
   657  000828  43                 	db	79	;'O'
   658  000829  4F                 	db	77	;'M'
   659  00082A  4D                 	db	69	;'E'
   660  00082B  45                 	db	32
   661  00082C  20                 	db	32
   662  00082D  20                 	db	32
   663  00082E  20                 	db	32
   664  00082F  20                 	db	32
   665  000830  20                 	db	32
   666  000831  20                 	db	32
   667  000832  20                 	db	0
   668  000833  00                 	
   669                           STR_4:
   670  000834                     	db	32
   671  000834  20                 	db	83	;'S'
   672  000835  53                 	db	99	;'c'
   673  000836  63                 	db	104	;'h'
   674  000837  68                 	db	111	;'o'
   675  000838  6F                 	db	111	;'o'
   676  000839  6F                 	db	108	;'l'
   677  00083A  6C                 	db	32
   678  00083B  20                 	db	90	;'Z'
   679  00083C  5A                 	db	111	;'o'
   680  00083D  6F                 	db	110	;'n'
   681  00083E  6E                 	db	101	;'e'
   682  00083F  65                 	db	32
   683  000840  20                 	db	0
   684  000841  00                 	
   685                           STR_5:
   686  000842                     	db	67	;'C'
   687  000842  43                 	db	65	;'A'
   688  000843  41                 	db	85	;'U'
   689  000844  55                 	db	84	;'T'
   690  000845  54                 	db	73	;'I'
   691  000846  49                 	db	79	;'O'
   692  000847  4F                 	db	78	;'N'
   693  000848  4E                 	db	33
   694  000849  21                 	db	33
   695  00084A  21                 	db	33
   696  00084B  21                 	db	0
   697  00084C  00                 	
   698                           STR_3:
   699  00084D                     	db	84	;'T'
   700  00084D  54                 	db	69	;'E'
   701  00084E  45                 	db	83	;'S'
   702  00084F  53                 	db	76	;'L'
   703  000850  4C                 	db	65	;'A'
   704  000851  41                 	db	32
   705  000852  20                 	db	86	;'V'
   706  000853  56                 	db	50	;'2'
   707  000854  32                 	db	46
   708  000855  2E                 	db	48	;'0'
   709  000856  30                 	db	0
   710  000857  00                 	
   711                           STR_10:
   712  000858                     	db	32
   713  000858  20                 	db	70	;'F'
   714  000859  46                 	db	111	;'o'
   715  00085A  6F                 	db	114	;'r'
   716  00085B  72                 	db	119	;'w'
   717  00085C  77                 	db	97	;'a'
   718  00085D  61                 	db	114	;'r'
   719  00085E  72                 	db	100	;'d'
   720  00085F  64                 	db	32
   721  000860  20                 	db	0
   722  000861  00                 	
   723                           STR_2:
   724  000862                     	db	32
   725  000862  20                 	db	87	;'W'
   726  000863  57                 	db	69	;'E'
   727  000864  45                 	db	76	;'L'
   728  000865  4C                 	db	67	;'C'
   729  000866  43                 	db	79	;'O'
   730  000867  4F                 	db	77	;'M'
   731  000868  4D                 	db	69	;'E'
   732  000869  45                 	db	0
   733  00086A  00                 	
   734                           STR_12:
   735  00086B                     	db	32
   736  00086B  20                 	db	82	;'R'
   737  00086C  52                 	db	105	;'i'
   738  00086D  69                 	db	103	;'g'
   739  00086E  67                 	db	104	;'h'
   740  00086F  68                 	db	116	;'t'
   741  000870  74                 	db	32
   742  000871  20                 	db	0
   743  000872  00                 	
   744                           STR_1:
   745  000873                     	db	32
   746  000873  20                 	db	82	;'R'
   747  000874  52                 	db	101	;'e'
   748  000875  65                 	db	97	;'a'
   749  000876  61                 	db	100	;'d'
   750  000877  64                 	db	121	;'y'
   751  000878  79                 	db	32
   752  000879  20                 	db	0
   753  00087A  00                 	
   754                           STR_9:
   755  00087B                     	db	32
   756  00087B  20                 	db	66	;'B'
   757  00087C  42                 	db	97	;'a'
   758  00087D  61                 	db	99	;'c'
   759  00087E  63                 	db	107	;'k'
   760  00087F  6B                 	db	32
   761  000880  20                 	db	0
   762  000881  00                 	
   763                           STR_13:
   764  000882                     	db	32
   765  000882  20                 	db	83	;'S'
   766  000883  53                 	db	116	;'t'
   767  000884  74                 	db	111	;'o'
   768  000885  6F                 	db	112	;'p'
   769  000886  70                 	db	32
   770  000887  20                 	db	0
   771  000888  00                 	
   772                           STR_11:
   773  000889                     	db	32
   774  000889  20                 	db	76	;'L'
   775  00088A  4C                 	db	101	;'e'
   776  00088B  65                 	db	102	;'f'
   777  00088C  66                 	db	116	;'t'
   778  00088D  74                 	db	32
   779  00088E  20                 	db	0
   780  00088F  00                 ; #config settings
   781                           global __CFG_PLLSEL$PLL4X
   782                           __CFG_PLLSEL$PLL4X equ 0x0
   783  0000                     global __CFG_CFGPLLEN$OFF
   784                           __CFG_CFGPLLEN$OFF equ 0x0
   785  0000                     global __CFG_CPUDIV$NOCLKDIV
   786                           __CFG_CPUDIV$NOCLKDIV equ 0x0
   787  0000                     global __CFG_LS48MHZ$SYS24X4
   788                           __CFG_LS48MHZ$SYS24X4 equ 0x0
   789  0000                     global __CFG_FOSC$INTOSCIO
   790                           __CFG_FOSC$INTOSCIO equ 0x0
   791  0000                     global __CFG_PCLKEN$ON
   792                           __CFG_PCLKEN$ON equ 0x0
   793  0000                     global __CFG_FCMEN$OFF
   794                           __CFG_FCMEN$OFF equ 0x0
   795  0000                     global __CFG_IESO$OFF
   796                           __CFG_IESO$OFF equ 0x0
   797  0000                     global __CFG_nPWRTEN$OFF
   798                           __CFG_nPWRTEN$OFF equ 0x0
   799  0000                     global __CFG_BOREN$SBORDIS
   800                           __CFG_BOREN$SBORDIS equ 0x0
   801  0000                     global __CFG_BORV$190
   802                           __CFG_BORV$190 equ 0x0
   803  0000                     global __CFG_nLPBOR$OFF
   804                           __CFG_nLPBOR$OFF equ 0x0
   805  0000                     global __CFG_WDTEN$OFF
   806                           __CFG_WDTEN$OFF equ 0x0
   807  0000                     global __CFG_WDTPS$32768
   808                           __CFG_WDTPS$32768 equ 0x0
   809  0000                     global __CFG_CCP2MX$RC1
   810                           __CFG_CCP2MX$RC1 equ 0x0
   811  0000                     global __CFG_PBADEN$ON
   812                           __CFG_PBADEN$ON equ 0x0
   813  0000                     global __CFG_T3CMX$RC0
   814                           __CFG_T3CMX$RC0 equ 0x0
   815  0000                     global __CFG_SDOMX$RB3
   816                           __CFG_SDOMX$RB3 equ 0x0
   817  0000                     global __CFG_MCLRE$ON
   818                           __CFG_MCLRE$ON equ 0x0
   819  0000                     global __CFG_STVREN$ON
   820                           __CFG_STVREN$ON equ 0x0
   821  0000                     global __CFG_LVP$ON
   822                           __CFG_LVP$ON equ 0x0
   823  0000                     global __CFG_ICPRT$OFF
   824                           __CFG_ICPRT$OFF equ 0x0
   825  0000                     global __CFG_XINST$OFF
   826                           __CFG_XINST$OFF equ 0x0
   827  0000                     global __CFG_CP0$OFF
   828                           __CFG_CP0$OFF equ 0x0
   829  0000                     global __CFG_CP1$OFF
   830                           __CFG_CP1$OFF equ 0x0
   831  0000                     global __CFG_CP2$OFF
   832                           __CFG_CP2$OFF equ 0x0
   833  0000                     global __CFG_CP3$OFF
   834                           __CFG_CP3$OFF equ 0x0
   835  0000                     global __CFG_CPB$OFF
   836                           __CFG_CPB$OFF equ 0x0
   837  0000                     global __CFG_CPD$OFF
   838                           __CFG_CPD$OFF equ 0x0
   839  0000                     global __CFG_WRT0$OFF
   840                           __CFG_WRT0$OFF equ 0x0
   841  0000                     global __CFG_WRT1$OFF
   842                           __CFG_WRT1$OFF equ 0x0
   843  0000                     global __CFG_WRT2$OFF
   844                           __CFG_WRT2$OFF equ 0x0
   845  0000                     global __CFG_WRT3$OFF
   846                           __CFG_WRT3$OFF equ 0x0
   847  0000                     global __CFG_WRTC$OFF
   848                           __CFG_WRTC$OFF equ 0x0
   849  0000                     global __CFG_WRTB$OFF
   850                           __CFG_WRTB$OFF equ 0x0
   851  0000                     global __CFG_WRTD$OFF
   852                           __CFG_WRTD$OFF equ 0x0
   853  0000                     global __CFG_EBTR0$OFF
   854                           __CFG_EBTR0$OFF equ 0x0
   855  0000                     global __CFG_EBTR1$OFF
   856                           __CFG_EBTR1$OFF equ 0x0
   857  0000                     global __CFG_EBTR2$OFF
   858                           __CFG_EBTR2$OFF equ 0x0
   859  0000                     global __CFG_EBTR3$OFF
   860                           __CFG_EBTR3$OFF equ 0x0
   861  0000                     global __CFG_EBTRB$OFF
   862                           __CFG_EBTRB$OFF equ 0x0
   863  0000                     	file	"/tmp/xcyDr7feR"
   864                           	line	#
   865                           psect	cinit,class=CODE,delta=1,reloc=2
   866                           global __pcinit
   867                           __pcinit:
   868  001C2C                     global start_initialization
   869                           start_initialization:
   870  001C2C                     
   871                           global __initialization
   872                           __initialization:
   873  001C2C                     psect	bssCOMRAM,class=COMRAM,space=1,noexec
   874                           global __pbssCOMRAM
   875                           __pbssCOMRAM:
   876  000044                     	global	_fbtext
   877                           _fbtext:
   878  000044                            ds      2
   879  000044                     	global	_mspeedval
   880                           _mspeedval:
   881  000046                            ds      2
   882  000046                     psect	dataCOMRAM,class=COMRAM,space=1,noexec
   883                           global __pdataCOMRAM
   884                           __pdataCOMRAM:
   885  000048                     	file	"RF_HC05.c"
   886                           	line	33
   887                           	global	_BT_data_in
   888                           _BT_data_in:
   889  000048                            ds      1
   890  000048                     	file	"/tmp/xcyDr7feR"
   891                           	line	#
   892                           psect	cinit
   893                           ; Initialize objects allocated to COMRAM (1 bytes)
   894                           	global __pidataCOMRAM
   895                           	; load TBLPTR registers with __pidataCOMRAM
   896                           	movlw	low (__pidataCOMRAM)
   897  001C2C  0E72               	movwf	tblptrl
   898  001C2E  6EF6               	movlw	high(__pidataCOMRAM)
   899  001C30  0E1C               	movwf	tblptrh
   900  001C32  6EF7               	movlw	low highword(__pidataCOMRAM)
   901  001C34  0E00               	movwf	tblptru
   902  001C36  6EF8               	tblrd*+ ;fetch initializer
   903  001C38  0009               	movff	tablat, __pdataCOMRAM+0		
   904  001C3A  CFF5 F048          	line	#
   905                           ; Clear objects allocated to COMRAM (4 bytes)
   906                           	global __pbssCOMRAM
   907                           clrf	(__pbssCOMRAM+3)&0xffh,c
   908  001C3E  6A47               clrf	(__pbssCOMRAM+2)&0xffh,c
   909  001C40  6A46               clrf	(__pbssCOMRAM+1)&0xffh,c
   910  001C42  6A45               clrf	(__pbssCOMRAM+0)&0xffh,c
   911  001C44  6A44               psect cinit,class=CODE,delta=1
   912                           global end_of_initialization,__end_of__initialization
   913                           
   914                           ;End of C runtime variable initialization code
   915                           
   916                           end_of_initialization:
   917  001C46                     __end_of__initialization:
   918  001C46                     	GLOBAL	__Lsmallconst
   919                           	movlw	low highword(__Lsmallconst)
   920  001C46  0E00               	movwf	tblptru
   921  001C48  6EF8               	movlw	high(__Lsmallconst)
   922  001C4A  0E08               	movwf	tblptrh
   923  001C4C  6EF7               movlb 0
   924  001C4E  0100               goto _main	;jump to C main() function
   925  001C50  EFD2  F00A         psect	cstackCOMRAM,class=COMRAM,space=1,noexec
   926                           global __pcstackCOMRAM
   927                           __pcstackCOMRAM:
   928  000001                     ?_LCD_Init:	; 1 bytes @ 0x0
   929  000001                     ?_bluetoothint:	; 1 bytes @ 0x0
   930  000001                     ?_MSdelay_L:	; 1 bytes @ 0x0
   931  000001                     ?_LCD_Command:	; 1 bytes @ 0x0
   932  000001                     ?_mspeedfunc:	; 1 bytes @ 0x0
   933  000001                     ?_USART_TransmitChar:	; 1 bytes @ 0x0
   934  000001                     ??_USART_TransmitChar:	; 1 bytes @ 0x0
   935  000001                     ?_MSdelay:	; 1 bytes @ 0x0
   936  000001                     ?_main:	; 1 bytes @ 0x0
   937  000001                     ?_LCD_Char:	; 1 bytes @ 0x0
   938  000001                     	global	?___fltol
   939                           ?___fltol:	; 4 bytes @ 0x0
   940  000001                     	global	?___xxtofl
   941                           ?___xxtofl:	; 4 bytes @ 0x0
   942  000001                     	global	USART_TransmitChar@out
   943                           USART_TransmitChar@out:	; 1 bytes @ 0x0
   944  000001                     	global	MSdelay@val
   945                           MSdelay@val:	; 2 bytes @ 0x0
   946  000001                     	global	MSdelay_L@val
   947                           MSdelay_L@val:	; 2 bytes @ 0x0
   948  000001                     	global	mspeedfunc@mspeedval
   949                           mspeedfunc@mspeedval:	; 2 bytes @ 0x0
   950  000001                     	global	___fltol@f1
   951                           ___fltol@f1:	; 4 bytes @ 0x0
   952  000001                     	global	___xxtofl@val
   953                           ___xxtofl@val:	; 4 bytes @ 0x0
   954  000001                     	ds   1
   955  000001                     ?_USART_SendString:	; 1 bytes @ 0x1
   956  000002                     	global	USART_SendString@out
   957                           USART_SendString@out:	; 2 bytes @ 0x1
   958  000002                     	ds   1
   959  000002                     ??_MSdelay_L:	; 1 bytes @ 0x2
   960  000003                     ??_mspeedfunc:	; 1 bytes @ 0x2
   961  000003                     ??_MSdelay:	; 1 bytes @ 0x2
   962  000003                     	global	MSdelay@i
   963                           MSdelay@i:	; 2 bytes @ 0x2
   964  000003                     	global	MSdelay_L@i
   965                           MSdelay_L@i:	; 2 bytes @ 0x2
   966  000003                     	ds   1
   967  000003                     ??_bluetoothint:	; 1 bytes @ 0x3
   968  000004                     ??_USART_SendString:	; 1 bytes @ 0x3
   969  000004                     	ds   1
   970  000004                     ??___fltol:	; 1 bytes @ 0x4
   971  000005                     ??___xxtofl:	; 1 bytes @ 0x4
   972  000005                     	global	MSdelay@j
   973                           MSdelay@j:	; 2 bytes @ 0x4
   974  000005                     	global	MSdelay_L@j
   975                           MSdelay_L@j:	; 2 bytes @ 0x4
   976  000005                     	ds   2
   977  000005                     ??_LCD_Command:	; 1 bytes @ 0x6
   978  000007                     ??_LCD_Char:	; 1 bytes @ 0x6
   979  000007                     	ds   1
   980  000007                     	global	LCD_Command@cmd
   981                           LCD_Command@cmd:	; 1 bytes @ 0x7
   982  000008                     	global	LCD_Char@dat
   983                           LCD_Char@dat:	; 1 bytes @ 0x7
   984  000008                     	ds   1
   985  000008                     ??_LCD_Init:	; 1 bytes @ 0x8
   986  000009                     ?_LCD_String:	; 1 bytes @ 0x8
   987  000009                     	global	___fltol@sign1
   988                           ___fltol@sign1:	; 1 bytes @ 0x8
   989  000009                     	global	___xxtofl@sign
   990                           ___xxtofl@sign:	; 1 bytes @ 0x8
   991  000009                     	global	LCD_String@msg
   992                           LCD_String@msg:	; 2 bytes @ 0x8
   993  000009                     	ds   1
   994  000009                     	global	___fltol@exp1
   995                           ___fltol@exp1:	; 1 bytes @ 0x9
   996  00000A                     	global	___xxtofl@exp
   997                           ___xxtofl@exp:	; 1 bytes @ 0x9
   998  00000A                     	ds   1
   999  00000A                     ?_LCD_String_xy:	; 1 bytes @ 0xA
  1000  00000B                     ??_LCD_String:	; 1 bytes @ 0xA
  1001  00000B                     	global	LCD_String_xy@pos
  1002                           LCD_String_xy@pos:	; 1 bytes @ 0xA
  1003  00000B                     	global	___xxtofl@arg
  1004                           ___xxtofl@arg:	; 4 bytes @ 0xA
  1005  00000B                     	ds   1
  1006  00000B                     	global	LCD_String_xy@msg
  1007                           LCD_String_xy@msg:	; 2 bytes @ 0xB
  1008  00000C                     	ds   2
  1009  00000C                     ??_LCD_String_xy:	; 1 bytes @ 0xD
  1010  00000E                     	global	LCD_String_xy@row
  1011                           LCD_String_xy@row:	; 1 bytes @ 0xD
  1012  00000E                     	ds   1
  1013  00000E                     	global	?___fldiv
  1014                           ?___fldiv:	; 4 bytes @ 0xE
  1015  00000F                     	global	LCD_String_xy@location
  1016                           LCD_String_xy@location:	; 1 bytes @ 0xE
  1017  00000F                     	global	___fldiv@b
  1018                           ___fldiv@b:	; 4 bytes @ 0xE
  1019  00000F                     	ds   4
  1020  00000F                     	global	___fldiv@a
  1021                           ___fldiv@a:	; 4 bytes @ 0x12
  1022  000013                     	ds   4
  1023  000013                     ??___fldiv:	; 1 bytes @ 0x16
  1024  000017                     	ds   4
  1025  000017                     	global	___fldiv@rem
  1026                           ___fldiv@rem:	; 4 bytes @ 0x1A
  1027  00001B                     	ds   4
  1028  00001B                     	global	___fldiv@sign
  1029                           ___fldiv@sign:	; 1 bytes @ 0x1E
  1030  00001F                     	ds   1
  1031  00001F                     	global	___fldiv@new_exp
  1032                           ___fldiv@new_exp:	; 2 bytes @ 0x1F
  1033  000020                     	ds   2
  1034  000020                     	global	___fldiv@grs
  1035                           ___fldiv@grs:	; 4 bytes @ 0x21
  1036  000022                     	ds   4
  1037  000022                     	global	___fldiv@bexp
  1038                           ___fldiv@bexp:	; 1 bytes @ 0x25
  1039  000026                     	ds   1
  1040  000026                     	global	___fldiv@aexp
  1041                           ___fldiv@aexp:	; 1 bytes @ 0x26
  1042  000027                     	ds   1
  1043  000027                     	global	?___fladd
  1044                           ?___fladd:	; 4 bytes @ 0x27
  1045  000028                     	global	___fladd@b
  1046                           ___fladd@b:	; 4 bytes @ 0x27
  1047  000028                     	ds   4
  1048  000028                     	global	___fladd@a
  1049                           ___fladd@a:	; 4 bytes @ 0x2B
  1050  00002C                     	ds   4
  1051  00002C                     ??___fladd:	; 1 bytes @ 0x2F
  1052  000030                     	ds   8
  1053  000030                     	global	___fladd@signs
  1054                           ___fladd@signs:	; 1 bytes @ 0x37
  1055  000038                     	ds   1
  1056  000038                     	global	___fladd@aexp
  1057                           ___fladd@aexp:	; 1 bytes @ 0x38
  1058  000039                     	ds   1
  1059  000039                     	global	___fladd@bexp
  1060                           ___fladd@bexp:	; 1 bytes @ 0x39
  1061  00003A                     	ds   1
  1062  00003A                     	global	___fladd@grs
  1063                           ___fladd@grs:	; 1 bytes @ 0x3A
  1064  00003B                     	ds   1
  1065  00003B                     ?_USART_Init:	; 1 bytes @ 0x3B
  1066  00003C                     	global	USART_Init@baud_rate
  1067                           USART_Init@baud_rate:	; 4 bytes @ 0x3B
  1068  00003C                     	ds   4
  1069  00003C                     ??_USART_Init:	; 1 bytes @ 0x3F
  1070  000040                     	global	USART_Init@temp
  1071                           USART_Init@temp:	; 4 bytes @ 0x3F
  1072  000040                     	ds   4
  1073  000040                     ??_main:	; 1 bytes @ 0x43
  1074  000044                     ;!
  1075                           ;!Data Sizes:
  1076                           ;!    Strings     143
  1077                           ;!    Constant    0
  1078                           ;!    Data        1
  1079                           ;!    BSS         4
  1080                           ;!    Persistent  0
  1081                           ;!    Stack       0
  1082                           ;!
  1083                           ;!Auto Spaces:
  1084                           ;!    Space          Size  Autos    Used
  1085                           ;!    COMRAM           95     67      72
  1086                           ;!    BANK0           160      0       0
  1087                           ;!    BANK1           256      0       0
  1088                           ;!    BANK2           256      0       0
  1089                           ;!    BANK3           256      0       0
  1090                           ;!    BANK4           256      0       0
  1091                           ;!    BANK5           256      0       0
  1092                           ;!    BANK6           256      0       0
  1093                           ;!    BANK7           256      0       0
  1094                           
  1095                           ;!
  1096                           ;!Pointer List with Targets:
  1097                           ;!
  1098                           ;!    LCD_String_xy@msg	PTR const unsigned char  size(2) Largest target is 18
  1099                           ;!		 -> STR_8(CODE[18]), STR_7(CODE[16]), STR_6(CODE[17]), STR_5(CODE[11]), 
  1100                           ;!		 -> STR_3(CODE[11]), STR_2(CODE[9]), 
  1101                           ;!
  1102                           ;!    LCD_String@msg	PTR const unsigned char  size(2) Largest target is 18
  1103                           ;!		 -> STR_8(CODE[18]), STR_7(CODE[16]), STR_6(CODE[17]), STR_5(CODE[11]), 
  1104                           ;!		 -> STR_3(CODE[11]), STR_2(CODE[9]), 
  1105                           ;!
  1106                           ;!    USART_SendString@out	PTR const unsigned char  size(2) Largest target is 14
  1107                           ;!		 -> STR_13(CODE[7]), STR_12(CODE[8]), STR_11(CODE[7]), STR_10(CODE[10]), 
  1108                           ;!		 -> STR_9(CODE[7]), STR_4(CODE[14]), STR_1(CODE[8]), 
  1109                           ;!
  1110                           
  1111                           
  1112                           ;!
  1113                           ;!Critical Paths under _main in COMRAM
  1114                           ;!
  1115                           ;!    _main->_USART_Init
  1116                           ;!    _bluetoothint->_USART_SendString
  1117                           ;!    _USART_SendString->_USART_TransmitChar
  1118                           ;!    _USART_Init->___fladd
  1119                           ;!    ___fldiv->___xxtofl
  1120                           ;!    ___fladd->___fldiv
  1121                           ;!    _LCD_String_xy->_LCD_String
  1122                           ;!    _LCD_String->_LCD_Char
  1123                           ;!    _LCD_Char->_MSdelay_L
  1124                           ;!    _LCD_Init->_LCD_Command
  1125                           ;!    _LCD_Command->_MSdelay_L
  1126                           ;!
  1127                           ;!Critical Paths under _main in BANK0
  1128                           ;!
  1129                           ;!    None.
  1130                           ;!
  1131                           ;!Critical Paths under _main in BANK1
  1132                           ;!
  1133                           ;!    None.
  1134                           ;!
  1135                           ;!Critical Paths under _main in BANK2
  1136                           ;!
  1137                           ;!    None.
  1138                           ;!
  1139                           ;!Critical Paths under _main in BANK3
  1140                           ;!
  1141                           ;!    None.
  1142                           ;!
  1143                           ;!Critical Paths under _main in BANK4
  1144                           ;!
  1145                           ;!    None.
  1146                           ;!
  1147                           ;!Critical Paths under _main in BANK5
  1148                           ;!
  1149                           ;!    None.
  1150                           ;!
  1151                           ;!Critical Paths under _main in BANK6
  1152                           ;!
  1153                           ;!    None.
  1154                           ;!
  1155                           ;!Critical Paths under _main in BANK7
  1156                           ;!
  1157                           ;!    None.
  1158                           
  1159 ;;
  1160 ;;Main: autosize = 0, tempsize = 0, incstack = 0, save=0
  1161 ;;
  1162                           
  1163                           ;!
  1164                           ;!Call Graph Tables:
  1165                           ;!
  1166                           ;! ---------------------------------------------------------------------------------
  1167                           ;! (Depth) Function   	        Calls       Base Space   Used Autos Params    Refs
  1168                           ;! ---------------------------------------------------------------------------------
  1169                           ;! (0) _main                                                 0     0      0    9565
  1170                           ;!                           _LCD_Init
  1171                           ;!                      _LCD_String_xy
  1172                           ;!                            _MSdelay
  1173                           ;!                         _USART_Init
  1174                           ;!                   _USART_SendString
  1175                           ;!                       _bluetoothint
  1176                           ;! ---------------------------------------------------------------------------------
  1177                           ;! (1) _bluetoothint                                         0     0      0     778
  1178                           ;!                   _USART_SendString
  1179                           ;!                         _mspeedfunc
  1180                           ;! ---------------------------------------------------------------------------------
  1181                           ;! (2) _mspeedfunc                                           2     0      2     186
  1182                           ;!                                              0 COMRAM     2     0      2
  1183                           ;! ---------------------------------------------------------------------------------
  1184                           ;! (2) _USART_SendString                                     2     0      2     592
  1185                           ;!                                              1 COMRAM     2     0      2
  1186                           ;!                 _USART_TransmitChar
  1187                           ;! ---------------------------------------------------------------------------------
  1188                           ;! (3) _USART_TransmitChar                                   1     1      0      15
  1189                           ;!                                              0 COMRAM     1     1      0
  1190                           ;! ---------------------------------------------------------------------------------
  1191                           ;! (1) _USART_Init                                           8     4      4    4611
  1192                           ;!                                             59 COMRAM     8     4      4
  1193                           ;!                            ___fladd
  1194                           ;!                            ___fldiv
  1195                           ;!                            ___fltol
  1196                           ;!                           ___xxtofl
  1197                           ;! ---------------------------------------------------------------------------------
  1198                           ;! (2) ___xxtofl                                            14    10      4     398
  1199                           ;!                                              0 COMRAM    14    10      4
  1200                           ;! ---------------------------------------------------------------------------------
  1201                           ;! (2) ___fltol                                             10     6      4     305
  1202                           ;!                                              0 COMRAM    10     6      4
  1203                           ;! ---------------------------------------------------------------------------------
  1204                           ;! (2) ___fldiv                                             25    17      8    1399
  1205                           ;!                                             14 COMRAM    25    17      8
  1206                           ;!                           ___xxtofl (ARG)
  1207                           ;! ---------------------------------------------------------------------------------
  1208                           ;! (2) ___fladd                                             20    12      8    2388
  1209                           ;!                                             39 COMRAM    20    12      8
  1210                           ;!                            ___fldiv (ARG)
  1211                           ;!                           ___xxtofl (ARG)
  1212                           ;! ---------------------------------------------------------------------------------
  1213                           ;! (1) _MSdelay                                              6     4      2     396
  1214                           ;!                                              0 COMRAM     6     4      2
  1215                           ;! ---------------------------------------------------------------------------------
  1216                           ;! (1) _LCD_String_xy                                        5     2      3    2200
  1217                           ;!                                             10 COMRAM     5     2      3
  1218                           ;!                        _LCD_Command
  1219                           ;!                         _LCD_String
  1220                           ;! ---------------------------------------------------------------------------------
  1221                           ;! (2) _LCD_String                                           2     0      2     637
  1222                           ;!                                              8 COMRAM     2     0      2
  1223                           ;!                           _LCD_Char
  1224                           ;! ---------------------------------------------------------------------------------
  1225                           ;! (3) _LCD_Char                                             2     2      0     516
  1226                           ;!                                              6 COMRAM     2     2      0
  1227                           ;!                          _MSdelay_L
  1228                           ;! ---------------------------------------------------------------------------------
  1229                           ;! (1) _LCD_Init                                             0     0      0     988
  1230                           ;!                        _LCD_Command
  1231                           ;!                          _MSdelay_L
  1232                           ;! ---------------------------------------------------------------------------------
  1233                           ;! (2) _LCD_Command                                          2     2      0     516
  1234                           ;!                                              6 COMRAM     2     2      0
  1235                           ;!                          _MSdelay_L
  1236                           ;! ---------------------------------------------------------------------------------
  1237                           ;! (4) _MSdelay_L                                            6     4      2     472
  1238                           ;!                                              0 COMRAM     6     4      2
  1239                           ;! ---------------------------------------------------------------------------------
  1240                           ;! Estimated maximum stack depth 4
  1241                           ;! ---------------------------------------------------------------------------------
  1242                           ;!
  1243                           ;! Call Graph Graphs:
  1244                           ;!
  1245                           ;! _main (ROOT)
  1246                           ;!   _LCD_Init
  1247                           ;!     _LCD_Command
  1248                           ;!       _MSdelay_L
  1249                           ;!     _MSdelay_L
  1250                           ;!   _LCD_String_xy
  1251                           ;!     _LCD_Command
  1252                           ;!       _MSdelay_L
  1253                           ;!     _LCD_String
  1254                           ;!       _LCD_Char
  1255                           ;!         _MSdelay_L
  1256                           ;!   _MSdelay
  1257                           ;!   _USART_Init
  1258                           ;!     ___fladd
  1259                           ;!       ___fldiv (ARG)
  1260                           ;!         ___xxtofl (ARG)
  1261                           ;!       ___xxtofl (ARG)
  1262                           ;!     ___fldiv
  1263                           ;!       ___xxtofl (ARG)
  1264                           ;!     ___fltol
  1265                           ;!     ___xxtofl
  1266                           ;!   _USART_SendString
  1267                           ;!     _USART_TransmitChar
  1268                           ;!   _bluetoothint
  1269                           ;!     _USART_SendString
  1270                           ;!       _USART_TransmitChar
  1271                           ;!     _mspeedfunc
  1272                           ;!
  1273                           
  1274                           ;! Address spaces:
  1275                           
  1276                           ;!Name               Size   Autos  Total    Cost      Usage
  1277                           ;!BIGRAM             7FF      0       0      21        0.0%
  1278                           ;!EEDATA             100      0       0       0        0.0%
  1279                           ;!BITBANK7           100      0       0      19        0.0%
  1280                           ;!BANK7              100      0       0      20        0.0%
  1281                           ;!BITBANK6           100      0       0      17        0.0%
  1282                           ;!BANK6              100      0       0      18        0.0%
  1283                           ;!BITBANK5           100      0       0      15        0.0%
  1284                           ;!BANK5              100      0       0      16        0.0%
  1285                           ;!BITBANK4           100      0       0      13        0.0%
  1286                           ;!BANK4              100      0       0      14        0.0%
  1287                           ;!BITBANK3           100      0       0      11        0.0%
  1288                           ;!BANK3              100      0       0      12        0.0%
  1289                           ;!BITBANK2           100      0       0       9        0.0%
  1290                           ;!BANK2              100      0       0      10        0.0%
  1291                           ;!BITBANK1           100      0       0       7        0.0%
  1292                           ;!BANK1              100      0       0       8        0.0%
  1293                           ;!BITBANK0            A0      0       0       4        0.0%
  1294                           ;!BANK0               A0      0       0       5        0.0%
  1295                           ;!BITCOMRAM           5F      0       0       0        0.0%
  1296                           ;!COMRAM              5F     43      48       1       75.8%
  1297                           ;!BITSFR_1             0      0       0     200        0.0%
  1298                           ;!SFR_1                0      0       0     200        0.0%
  1299                           ;!BITSFR               0      0       0     200        0.0%
  1300                           ;!SFR                  0      0       0     200        0.0%
  1301                           ;!STACK                0      0       0       2        0.0%
  1302                           ;!NULL                 0      0       0       0        0.0%
  1303                           ;!ABS                  0      0      48       6        0.0%
  1304                           ;!DATA                 0      0      48       3        0.0%
  1305                           ;!CODE                 0      0       0       0        0.0%
  1306                           
  1307                           	global	_main
  1308                           
  1309 ;; *************** function _main *****************
  1310 ;; Defined at:
  1311 ;;		line 72 in file "RF_HC05.c"
  1312 ;; Parameters:    Size  Location     Type
  1313 ;;		None
  1314 ;; Auto vars:     Size  Location     Type
  1315 ;;		None
  1316 ;; Return value:  Size  Location     Type
  1317 ;;                  1    wreg      void 
  1318 ;; Registers used:
  1319 ;;		wreg, status,2, status,0, tblptrl, tblptrh, tblptru, cstack
  1320 ;; Tracked objects:
  1321 ;;		On entry : 0/0
  1322 ;;		On exit  : 0/0
  1323 ;;		Unchanged: 0/0
  1324 ;; Data sizes:     COMRAM   BANK0   BANK1   BANK2   BANK3   BANK4   BANK5   BANK6   BANK7
  1325 ;;      Params:         0       0       0       0       0       0       0       0       0
  1326 ;;      Locals:         0       0       0       0       0       0       0       0       0
  1327 ;;      Temps:          0       0       0       0       0       0       0       0       0
  1328 ;;      Totals:         0       0       0       0       0       0       0       0       0
  1329 ;;Total ram usage:        0 bytes
  1330 ;; Hardware stack levels required when called:    4
  1331 ;; This function calls:
  1332 ;;		_LCD_Init
  1333 ;;		_LCD_String_xy
  1334 ;;		_MSdelay
  1335 ;;		_USART_Init
  1336 ;;		_USART_SendString
  1337 ;;		_bluetoothint
  1338 ;; This function is called by:
  1339 ;;		Startup code after reset
  1340 ;; This function uses a non-reentrant model
  1341 ;;
  1342                           psect	text0,class=CODE,space=0,reloc=2,group=0
  1343                           	file	"RF_HC05.c"
  1344                           	line	72
  1345                           global __ptext0
  1346                           __ptext0:
  1347  0015A4                     psect	text0
  1348                           	file	"RF_HC05.c"
  1349                           	line	72
  1350                           	global	__size_of_main
  1351                           	__size_of_main	equ	__end_of_main-_main
  1352  0000                     	
  1353                           _main:
  1354  0015A4                     ;incstack = 0
  1355                           	opt	stack 27
  1356                           	line	74
  1357                           	
  1358                           l2183:
  1359  0015A4                     ;RF_HC05.c: 74:     OSCCON=0x62;
  1360                           	movlw	low(062h)
  1361  0015A4  0E62               	movwf	((c:4051)),c	;volatile
  1362  0015A6  6ED3               	line	76
  1363                           	
  1364                           l2185:
  1365  0015A8                     ;RF_HC05.c: 76:     TRISC1 = 0;
  1366                           	bcf	c:(31905/8),(31905)&7	;volatile
  1367  0015A8  9294               	line	77
  1368                           	
  1369                           l2187:
  1370  0015AA                     ;RF_HC05.c: 77:     TRISC2 = 0;
  1371                           	bcf	c:(31906/8),(31906)&7	;volatile
  1372  0015AA  9494               	line	78
  1373                           	
  1374                           l2189:
  1375  0015AC                     ;RF_HC05.c: 78:     PORTCbits.CCP1 = 0;
  1376                           	bcf	((c:3970)),c,2	;volatile
  1377  0015AC  9482               	line	79
  1378                           	
  1379                           l2191:
  1380  0015AE                     ;RF_HC05.c: 79:     PORTCbits.CCP2 = 0;
  1381                           	bcf	((c:3970)),c,1	;volatile
  1382  0015AE  9282               	line	80
  1383                           ;RF_HC05.c: 80:     PR2 = 0b00011000;
  1384                           	movlw	low(018h)
  1385  0015B0  0E18               	movwf	((c:4027)),c	;volatile
  1386  0015B2  6EBB               	line	81
  1387                           ;RF_HC05.c: 81:     TRISD = 0;
  1388                           	movlw	low(0)
  1389  0015B4  0E00               	movwf	((c:3989)),c	;volatile
  1390  0015B6  6E95               	line	82
  1391                           ;RF_HC05.c: 82:     T2CON = 0b00000100;
  1392                           	movlw	low(04h)
  1393  0015B8  0E04               	movwf	((c:4026)),c	;volatile
  1394  0015BA  6EBA               	line	83
  1395                           	
  1396                           l2193:
  1397  0015BC                     ;RF_HC05.c: 83:     USART_Init(9600);
  1398                           	movlw	low(02580h)
  1399  0015BC  0E80               	movwf	((c:USART_Init@baud_rate)),c
  1400  0015BE  6E3C               	movlw	high(02580h)
  1401  0015C0  0E25               	movwf	((c:USART_Init@baud_rate+1)),c
  1402  0015C2  6E3D               	movlw	low highword(02580h)
  1403  0015C4  0E00               	movwf	((c:USART_Init@baud_rate+2)),c
  1404  0015C6  6E3E               	movlw	high highword(02580h)
  1405  0015C8  0E00               	movwf	((c:USART_Init@baud_rate+3)),c
  1406  0015CA  6E3F               	call	_USART_Init	;wreg free
  1407  0015CC  EC8F  F00C         	line	85
  1408                           	
  1409                           l2195:
  1410  0015D0                     ;RF_HC05.c: 85:     USART_SendString(" Ready ");
  1411                           		movlw	low(STR_1)
  1412  0015D0  0E73               	movwf	((c:USART_SendString@out)),c
  1413  0015D2  6E02               	movlw	high(STR_1)
  1414  0015D4  0E08               	movwf	((c:USART_SendString@out+1)),c
  1415  0015D6  6E03               
  1416                           	call	_USART_SendString	;wreg free
  1417  0015D8  ECC0  F00D         	line	86
  1418                           	
  1419                           l2197:
  1420  0015DC                     ;RF_HC05.c: 86:     LCD_Init();
  1421                           	call	_LCD_Init	;wreg free
  1422  0015DC  ECFE  F00D         	line	87
  1423                           	
  1424                           l2199:
  1425  0015E0                     ;RF_HC05.c: 87:  LCD_String_xy(1,3," WELCOME");
  1426                           	movlw	low(03h)
  1427  0015E0  0E03               	movwf	((c:LCD_String_xy@pos)),c
  1428  0015E2  6E0B               		movlw	low(STR_2)
  1429  0015E4  0E62               	movwf	((c:LCD_String_xy@msg)),c
  1430  0015E6  6E0C               	movlw	high(STR_2)
  1431  0015E8  0E08               	movwf	((c:LCD_String_xy@msg+1)),c
  1432  0015EA  6E0D               
  1433                           	movlw	(01h)&0ffh
  1434  0015EC  0E01               	
  1435                           	call	_LCD_String_xy
  1436  0015EE  EC9C  F00D         	line	88
  1437                           	
  1438                           l2201:
  1439  0015F2                     ;RF_HC05.c: 88:     LCD_String_xy(2,0,"TESLA V2.0");
  1440                           	movlw	low(0)
  1441  0015F2  0E00               	movwf	((c:LCD_String_xy@pos)),c
  1442  0015F4  6E0B               		movlw	low(STR_3)
  1443  0015F6  0E4D               	movwf	((c:LCD_String_xy@msg)),c
  1444  0015F8  6E0C               	movlw	high(STR_3)
  1445  0015FA  0E08               	movwf	((c:LCD_String_xy@msg+1)),c
  1446  0015FC  6E0D               
  1447                           	movlw	(02h)&0ffh
  1448  0015FE  0E02               	
  1449                           	call	_LCD_String_xy
  1450  001600  EC9C  F00D         	line	89
  1451                           	
  1452                           l2203:
  1453  001604                     ;RF_HC05.c: 89:     MSdelay(25);
  1454                           	movlw	high(019h)
  1455  001604  0E00               	movwf	((c:MSdelay@val+1)),c
  1456  001606  6E02               	movlw	low(019h)
  1457  001608  0E19               	movwf	((c:MSdelay@val)),c
  1458  00160A  6E01               	call	_MSdelay	;wreg free
  1459  00160C  ECDC  F00C         	goto	l2205
  1460  001610  EF0A  F00B         	line	91
  1461                           ;RF_HC05.c: 91:     while(1)
  1462                           	
  1463                           l106:
  1464  001614                     	line	93
  1465                           	
  1466                           l2205:
  1467  001614                     ;RF_HC05.c: 92:     {;RF_HC05.c: 93:         fbtext = 0;
  1468                           	movlw	high(0)
  1469  001614  0E00               	movwf	((c:_fbtext+1)),c
  1470  001616  6E45               	movlw	low(0)
  1471  001618  0E00               	movwf	((c:_fbtext)),c
  1472  00161A  6E44               	line	94
  1473                           	
  1474                           l2207:
  1475  00161C                     ;RF_HC05.c: 94:         if(RCIF==1)
  1476                           	btfss	c:(31989/8),(31989)&7	;volatile
  1477  00161C  AA9E               	goto	u2121
  1478  00161E  EF13  F00B         	goto	u2120
  1479  001622  EF15  F00B         u2121:
  1480  001626                     	goto	l2213
  1481  001626  EF1D  F00B         u2120:
  1482  00162A                     	line	96
  1483                           	
  1484                           l2209:
  1485  00162A                     ;RF_HC05.c: 95:         {;RF_HC05.c: 96:             BT_data_in = RCREG;
  1486                           	movff	(c:4014),(c:_BT_data_in)	;volatile
  1487  00162A  CFAE F048          	line	97
  1488                           	
  1489                           l2211:
  1490  00162E                     ;RF_HC05.c: 97:             fbtext = 1;
  1491                           	movlw	high(01h)
  1492  00162E  0E00               	movwf	((c:_fbtext+1)),c
  1493  001630  6E45               	movlw	low(01h)
  1494  001632  0E01               	movwf	((c:_fbtext)),c
  1495  001634  6E44               	goto	l2213
  1496  001636  EF1D  F00B         	line	98
  1497                           ;RF_HC05.c: 98:         }
  1498                           	
  1499                           l107:
  1500  00163A                     	line	100
  1501                           	
  1502                           l2213:
  1503  00163A                     ;RF_HC05.c: 100:         if(PORTCbits.RC0 == 1)
  1504                           	btfss	((c:3970)),c,0	;volatile
  1505  00163A  A082               	goto	u2131
  1506  00163C  EF22  F00B         	goto	u2130
  1507  001640  EF24  F00B         u2131:
  1508  001644                     	goto	l2229
  1509  001644  EF5B  F00B         u2130:
  1510  001648                     	line	104
  1511                           	
  1512                           l2215:
  1513  001648                     ;RF_HC05.c: 101:         {;RF_HC05.c: 104:             CCPR1L = 0b00001101;
  1514                           	movlw	low(0Dh)
  1515  001648  0E0D               	movwf	((c:4030)),c	;volatile
  1516  00164A  6EBE               	line	105
  1517                           ;RF_HC05.c: 105:             CCP1CON = 0b00001100;
  1518                           	movlw	low(0Ch)
  1519  00164C  0E0C               	movwf	((c:4029)),c	;volatile
  1520  00164E  6EBD               	line	107
  1521                           ;RF_HC05.c: 107:             CCPR2L = 0b00001101;
  1522                           	movlw	low(0Dh)
  1523  001650  0E0D               	movwf	((c:3984)),c	;volatile
  1524  001652  6E90               	line	108
  1525                           ;RF_HC05.c: 108:             CCP2CON = 0b00001100;
  1526                           	movlw	low(0Ch)
  1527  001654  0E0C               	movwf	((c:3991)),c	;volatile
  1528  001656  6E97               	line	109
  1529                           	
  1530                           l2217:
  1531  001658                     ;RF_HC05.c: 109:             MSdelay(1);
  1532                           	movlw	high(01h)
  1533  001658  0E00               	movwf	((c:MSdelay@val+1)),c
  1534  00165A  6E02               	movlw	low(01h)
  1535  00165C  0E01               	movwf	((c:MSdelay@val)),c
  1536  00165E  6E01               	call	_MSdelay	;wreg free
  1537  001660  ECDC  F00C         	line	111
  1538                           	
  1539                           l2219:
  1540  001664                     ;RF_HC05.c: 111:             if(fbtext == 1)
  1541                           		decf	((c:_fbtext)),c,w
  1542  001664  0444               iorwf	((c:_fbtext+1)),c,w
  1543  001666  1045               	btfss	status,2
  1544  001668  A4D8               	goto	u2141
  1545  00166A  EF39  F00B         	goto	u2140
  1546  00166E  EF3B  F00B         
  1547                           u2141:
  1548  001672                     	goto	l2225
  1549  001672  EF47  F00B         u2140:
  1550  001676                     	line	113
  1551                           	
  1552                           l2221:
  1553  001676                     ;RF_HC05.c: 112:             {;RF_HC05.c: 113:             USART_SendString(" School Zon
                                 e ");
  1554                           		movlw	low(STR_4)
  1555  001676  0E34               	movwf	((c:USART_SendString@out)),c
  1556  001678  6E02               	movlw	high(STR_4)
  1557  00167A  0E08               	movwf	((c:USART_SendString@out+1)),c
  1558  00167C  6E03               
  1559                           	call	_USART_SendString	;wreg free
  1560  00167E  ECC0  F00D         	line	114
  1561                           	
  1562                           l2223:
  1563  001682                     ;RF_HC05.c: 114:             fbtext = 0;
  1564                           	movlw	high(0)
  1565  001682  0E00               	movwf	((c:_fbtext+1)),c
  1566  001684  6E45               	movlw	low(0)
  1567  001686  0E00               	movwf	((c:_fbtext)),c
  1568  001688  6E44               	goto	l2225
  1569  00168A  EF47  F00B         	line	115
  1570                           ;RF_HC05.c: 115:             }
  1571                           	
  1572                           l109:
  1573  00168E                     	line	116
  1574                           	
  1575                           l2225:
  1576  00168E                     ;RF_HC05.c: 116:             LCD_String_xy(1,3,"CAUTION!!!");
  1577                           	movlw	low(03h)
  1578  00168E  0E03               	movwf	((c:LCD_String_xy@pos)),c
  1579  001690  6E0B               		movlw	low(STR_5)
  1580  001692  0E42               	movwf	((c:LCD_String_xy@msg)),c
  1581  001694  6E0C               	movlw	high(STR_5)
  1582  001696  0E08               	movwf	((c:LCD_String_xy@msg+1)),c
  1583  001698  6E0D               
  1584                           	movlw	(01h)&0ffh
  1585  00169A  0E01               	
  1586                           	call	_LCD_String_xy
  1587  00169C  EC9C  F00D         	line	117
  1588                           	
  1589                           l2227:
  1590  0016A0                     ;RF_HC05.c: 117:             LCD_String_xy(2,0,"SchoolZone 20MPH");
  1591                           	movlw	low(0)
  1592  0016A0  0E00               	movwf	((c:LCD_String_xy@pos)),c
  1593  0016A2  6E0B               		movlw	low(STR_6)
  1594  0016A4  0E13               	movwf	((c:LCD_String_xy@msg)),c
  1595  0016A6  6E0C               	movlw	high(STR_6)
  1596  0016A8  0E08               	movwf	((c:LCD_String_xy@msg+1)),c
  1597  0016AA  6E0D               
  1598                           	movlw	(02h)&0ffh
  1599  0016AC  0E02               	
  1600                           	call	_LCD_String_xy
  1601  0016AE  EC9C  F00D         	line	119
  1602                           ;RF_HC05.c: 119:         }
  1603                           	goto	l2241
  1604  0016B2  EF7B  F00B         	line	120
  1605                           ;RF_HC05.c: 120:         else
  1606                           	
  1607                           l108:
  1608  0016B6                     	line	123
  1609                           	
  1610                           l2229:
  1611  0016B6                     ;RF_HC05.c: 121:         {;RF_HC05.c: 123:             LCD_String_xy(1,3," WELCOME      
                                  ");
  1612                           	movlw	low(03h)
  1613  0016B6  0E03               	movwf	((c:LCD_String_xy@pos)),c
  1614  0016B8  6E0B               		movlw	low(STR_7)
  1615  0016BA  0E24               	movwf	((c:LCD_String_xy@msg)),c
  1616  0016BC  6E0C               	movlw	high(STR_7)
  1617  0016BE  0E08               	movwf	((c:LCD_String_xy@msg+1)),c
  1618  0016C0  6E0D               
  1619                           	movlw	(01h)&0ffh
  1620  0016C2  0E01               	
  1621                           	call	_LCD_String_xy
  1622  0016C4  EC9C  F00D         	line	124
  1623                           ;RF_HC05.c: 124:             LCD_String_xy(2,0,"  TESLA V2.0     ");
  1624                           	movlw	low(0)
  1625  0016C8  0E00               	movwf	((c:LCD_String_xy@pos)),c
  1626  0016CA  6E0B               		movlw	low(STR_8)
  1627  0016CC  0E01               	movwf	((c:LCD_String_xy@msg)),c
  1628  0016CE  6E0C               	movlw	high(STR_8)
  1629  0016D0  0E08               	movwf	((c:LCD_String_xy@msg+1)),c
  1630  0016D2  6E0D               
  1631                           	movlw	(02h)&0ffh
  1632  0016D4  0E02               	
  1633                           	call	_LCD_String_xy
  1634  0016D6  EC9C  F00D         	line	125
  1635                           	
  1636                           l2231:
  1637  0016DA                     ;RF_HC05.c: 125:             CCPR1L = 0b11111111;
  1638                           	setf	((c:4030)),c	;volatile
  1639  0016DA  68BE               	line	126
  1640                           	
  1641                           l2233:
  1642  0016DC                     ;RF_HC05.c: 126:             CCP1CON = 0b00001100;
  1643                           	movlw	low(0Ch)
  1644  0016DC  0E0C               	movwf	((c:4029)),c	;volatile
  1645  0016DE  6EBD               	line	128
  1646                           	
  1647                           l2235:
  1648  0016E0                     ;RF_HC05.c: 128:             CCPR2L = 0b11111111;
  1649                           	setf	((c:3984)),c	;volatile
  1650  0016E0  6890               	line	129
  1651                           	
  1652                           l2237:
  1653  0016E2                     ;RF_HC05.c: 129:             CCP2CON = 0b00001100;
  1654                           	movlw	low(0Ch)
  1655  0016E2  0E0C               	movwf	((c:3991)),c	;volatile
  1656  0016E4  6E97               	line	130
  1657                           	
  1658                           l2239:
  1659  0016E6                     ;RF_HC05.c: 130:             MSdelay(1);
  1660                           	movlw	high(01h)
  1661  0016E6  0E00               	movwf	((c:MSdelay@val+1)),c
  1662  0016E8  6E02               	movlw	low(01h)
  1663  0016EA  0E01               	movwf	((c:MSdelay@val)),c
  1664  0016EC  6E01               	call	_MSdelay	;wreg free
  1665  0016EE  ECDC  F00C         	goto	l2241
  1666  0016F2  EF7B  F00B         	line	132
  1667                           ;RF_HC05.c: 132:         }
  1668                           	
  1669                           l110:
  1670  0016F6                     	line	134
  1671                           	
  1672                           l2241:
  1673  0016F6                     ;RF_HC05.c: 134:         MSdelay(1);
  1674                           	movlw	high(01h)
  1675  0016F6  0E00               	movwf	((c:MSdelay@val+1)),c
  1676  0016F8  6E02               	movlw	low(01h)
  1677  0016FA  0E01               	movwf	((c:MSdelay@val)),c
  1678  0016FC  6E01               	call	_MSdelay	;wreg free
  1679  0016FE  ECDC  F00C         	line	135
  1680                           ;RF_HC05.c: 135:         bluetoothint();
  1681                           	call	_bluetoothint	;wreg free
  1682  001702  EC09  F00A         	goto	l2205
  1683  001706  EF0A  F00B         	line	136
  1684                           ;RF_HC05.c: 136:     }
  1685                           	
  1686                           l111:
  1687  00170A                     	goto	l2205
  1688  00170A  EF0A  F00B         	
  1689                           l112:
  1690  00170E                     	line	138
  1691                           	
  1692                           l113:
  1693  00170E                     	global	start
  1694                           	goto	start
  1695  00170E  EF00  F000         	opt stack 0
  1696                           GLOBAL	__end_of_main
  1697                           	__end_of_main:
  1698  001712                     	signat	_main,89
  1699                           	global	_bluetoothint
  1700                           
  1701 ;; *************** function _bluetoothint *****************
  1702 ;; Defined at:
  1703 ;;		line 223 in file "RF_HC05.c"
  1704 ;; Parameters:    Size  Location     Type
  1705 ;;		None
  1706 ;; Auto vars:     Size  Location     Type
  1707 ;;		None
  1708 ;; Return value:  Size  Location     Type
  1709 ;;                  1    wreg      void 
  1710 ;; Registers used:
  1711 ;;		wreg, status,2, status,0, tblptrl, tblptrh, tblptru, cstack
  1712 ;; Tracked objects:
  1713 ;;		On entry : 0/0
  1714 ;;		On exit  : 0/0
  1715 ;;		Unchanged: 0/0
  1716 ;; Data sizes:     COMRAM   BANK0   BANK1   BANK2   BANK3   BANK4   BANK5   BANK6   BANK7
  1717 ;;      Params:         0       0       0       0       0       0       0       0       0
  1718 ;;      Locals:         0       0       0       0       0       0       0       0       0
  1719 ;;      Temps:          0       0       0       0       0       0       0       0       0
  1720 ;;      Totals:         0       0       0       0       0       0       0       0       0
  1721 ;;Total ram usage:        0 bytes
  1722 ;; Hardware stack levels used:    1
  1723 ;; Hardware stack levels required when called:    2
  1724 ;; This function calls:
  1725 ;;		_USART_SendString
  1726 ;;		_mspeedfunc
  1727 ;; This function is called by:
  1728 ;;		_main
  1729 ;; This function uses a non-reentrant model
  1730 ;;
  1731                           psect	text1,class=CODE,space=0,reloc=2,group=0
  1732                           	line	223
  1733                           global __ptext1
  1734                           __ptext1:
  1735  001412                     psect	text1
  1736                           	file	"RF_HC05.c"
  1737                           	line	223
  1738                           	global	__size_of_bluetoothint
  1739                           	__size_of_bluetoothint	equ	__end_of_bluetoothint-_bluetoothint
  1740  0000                     	
  1741                           _bluetoothint:
  1742  001412                     ;incstack = 0
  1743                           	opt	stack 28
  1744                           	line	227
  1745                           	
  1746                           l2129:
  1747  001412                     ;RF_HC05.c: 227:         if(BT_data_in=='1')
  1748                           		movlw	49
  1749  001412  0E31               	xorwf	((c:_BT_data_in)),c,w
  1750  001414  1848               	btfss	status,2
  1751  001416  A4D8               	goto	u2021
  1752  001418  EF10  F00A         	goto	u2020
  1753  00141C  EF12  F00A         
  1754                           u2021:
  1755  001420                     	goto	l2139
  1756  001420  EF2D  F00A         u2020:
  1757  001424                     	line	229
  1758                           	
  1759                           l2131:
  1760  001424                     ;RF_HC05.c: 228:         {;RF_HC05.c: 229:             mspeedval = 1;
  1761                           	movlw	high(01h)
  1762  001424  0E00               	movwf	((c:_mspeedval+1)),c
  1763  001426  6E47               	movlw	low(01h)
  1764  001428  0E01               	movwf	((c:_mspeedval)),c
  1765  00142A  6E46               	line	231
  1766                           	
  1767                           l2133:
  1768  00142C                     ;RF_HC05.c: 231:             if(fbtext == 1)
  1769                           		decf	((c:_fbtext)),c,w
  1770  00142C  0444               iorwf	((c:_fbtext+1)),c,w
  1771  00142E  1045               	btfss	status,2
  1772  001430  A4D8               	goto	u2031
  1773  001432  EF1D  F00A         	goto	u2030
  1774  001436  EF1F  F00A         
  1775                           u2031:
  1776  00143A                     	goto	l2181
  1777  00143A  EFCB  F00A         u2030:
  1778  00143E                     	line	233
  1779                           	
  1780                           l2135:
  1781  00143E                     ;RF_HC05.c: 232:             {;RF_HC05.c: 233:             USART_SendString(" Back ");
  1782                           		movlw	low(STR_9)
  1783  00143E  0E7B               	movwf	((c:USART_SendString@out)),c
  1784  001440  6E02               	movlw	high(STR_9)
  1785  001442  0E08               	movwf	((c:USART_SendString@out+1)),c
  1786  001444  6E03               
  1787                           	call	_USART_SendString	;wreg free
  1788  001446  ECC0  F00D         	line	234
  1789                           	
  1790                           l2137:
  1791  00144A                     ;RF_HC05.c: 234:             fbtext = 0;
  1792                           	movlw	high(0)
  1793  00144A  0E00               	movwf	((c:_fbtext+1)),c
  1794  00144C  6E45               	movlw	low(0)
  1795  00144E  0E00               	movwf	((c:_fbtext)),c
  1796  001450  6E44               	goto	l2181
  1797  001452  EFCB  F00A         	line	235
  1798                           ;RF_HC05.c: 235:             }
  1799                           	
  1800                           l148:
  1801  001456                     	line	237
  1802                           ;RF_HC05.c: 237:         }
  1803                           	goto	l2181
  1804  001456  EFCB  F00A         	line	238
  1805                           ;RF_HC05.c: 238:         else if(BT_data_in=='2')
  1806                           	
  1807                           l147:
  1808  00145A                     	
  1809                           l2139:
  1810  00145A                     		movlw	50
  1811  00145A  0E32               	xorwf	((c:_BT_data_in)),c,w
  1812  00145C  1848               	btfss	status,2
  1813  00145E  A4D8               	goto	u2041
  1814  001460  EF34  F00A         	goto	u2040
  1815  001464  EF36  F00A         
  1816                           u2041:
  1817  001468                     	goto	l2149
  1818  001468  EF51  F00A         u2040:
  1819  00146C                     	line	240
  1820                           	
  1821                           l2141:
  1822  00146C                     ;RF_HC05.c: 239:         {;RF_HC05.c: 240:             mspeedval = 2;
  1823                           	movlw	high(02h)
  1824  00146C  0E00               	movwf	((c:_mspeedval+1)),c
  1825  00146E  6E47               	movlw	low(02h)
  1826  001470  0E02               	movwf	((c:_mspeedval)),c
  1827  001472  6E46               	line	242
  1828                           	
  1829                           l2143:
  1830  001474                     ;RF_HC05.c: 242:             if(fbtext == 1)
  1831                           		decf	((c:_fbtext)),c,w
  1832  001474  0444               iorwf	((c:_fbtext+1)),c,w
  1833  001476  1045               	btfss	status,2
  1834  001478  A4D8               	goto	u2051
  1835  00147A  EF41  F00A         	goto	u2050
  1836  00147E  EF43  F00A         
  1837                           u2051:
  1838  001482                     	goto	l2181
  1839  001482  EFCB  F00A         u2050:
  1840  001486                     	line	244
  1841                           	
  1842                           l2145:
  1843  001486                     ;RF_HC05.c: 243:             {;RF_HC05.c: 244:             USART_SendString(" Forward ")
                                 ;
  1844                           		movlw	low(STR_10)
  1845  001486  0E58               	movwf	((c:USART_SendString@out)),c
  1846  001488  6E02               	movlw	high(STR_10)
  1847  00148A  0E08               	movwf	((c:USART_SendString@out+1)),c
  1848  00148C  6E03               
  1849                           	call	_USART_SendString	;wreg free
  1850  00148E  ECC0  F00D         	line	245
  1851                           	
  1852                           l2147:
  1853  001492                     ;RF_HC05.c: 245:             fbtext = 0;
  1854                           	movlw	high(0)
  1855  001492  0E00               	movwf	((c:_fbtext+1)),c
  1856  001494  6E45               	movlw	low(0)
  1857  001496  0E00               	movwf	((c:_fbtext)),c
  1858  001498  6E44               	goto	l2181
  1859  00149A  EFCB  F00A         	line	246
  1860                           ;RF_HC05.c: 246:             }
  1861                           	
  1862                           l151:
  1863  00149E                     	line	248
  1864                           ;RF_HC05.c: 248:         }
  1865                           	goto	l2181
  1866  00149E  EFCB  F00A         	line	249
  1867                           ;RF_HC05.c: 249:         else if(BT_data_in=='3')
  1868                           	
  1869                           l150:
  1870  0014A2                     	
  1871                           l2149:
  1872  0014A2                     		movlw	51
  1873  0014A2  0E33               	xorwf	((c:_BT_data_in)),c,w
  1874  0014A4  1848               	btfss	status,2
  1875  0014A6  A4D8               	goto	u2061
  1876  0014A8  EF58  F00A         	goto	u2060
  1877  0014AC  EF5A  F00A         
  1878                           u2061:
  1879  0014B0                     	goto	l2159
  1880  0014B0  EF75  F00A         u2060:
  1881  0014B4                     	line	251
  1882                           	
  1883                           l2151:
  1884  0014B4                     ;RF_HC05.c: 250:         {;RF_HC05.c: 251:             mspeedval = 3;
  1885                           	movlw	high(03h)
  1886  0014B4  0E00               	movwf	((c:_mspeedval+1)),c
  1887  0014B6  6E47               	movlw	low(03h)
  1888  0014B8  0E03               	movwf	((c:_mspeedval)),c
  1889  0014BA  6E46               	line	253
  1890                           	
  1891                           l2153:
  1892  0014BC                     ;RF_HC05.c: 253:             if(fbtext == 1)
  1893                           		decf	((c:_fbtext)),c,w
  1894  0014BC  0444               iorwf	((c:_fbtext+1)),c,w
  1895  0014BE  1045               	btfss	status,2
  1896  0014C0  A4D8               	goto	u2071
  1897  0014C2  EF65  F00A         	goto	u2070
  1898  0014C6  EF67  F00A         
  1899                           u2071:
  1900  0014CA                     	goto	l2181
  1901  0014CA  EFCB  F00A         u2070:
  1902  0014CE                     	line	255
  1903                           	
  1904                           l2155:
  1905  0014CE                     ;RF_HC05.c: 254:             {;RF_HC05.c: 255:             USART_SendString(" Left ");
  1906                           		movlw	low(STR_11)
  1907  0014CE  0E89               	movwf	((c:USART_SendString@out)),c
  1908  0014D0  6E02               	movlw	high(STR_11)
  1909  0014D2  0E08               	movwf	((c:USART_SendString@out+1)),c
  1910  0014D4  6E03               
  1911                           	call	_USART_SendString	;wreg free
  1912  0014D6  ECC0  F00D         	line	256
  1913                           	
  1914                           l2157:
  1915  0014DA                     ;RF_HC05.c: 256:             fbtext = 0;
  1916                           	movlw	high(0)
  1917  0014DA  0E00               	movwf	((c:_fbtext+1)),c
  1918  0014DC  6E45               	movlw	low(0)
  1919  0014DE  0E00               	movwf	((c:_fbtext)),c
  1920  0014E0  6E44               	goto	l2181
  1921  0014E2  EFCB  F00A         	line	257
  1922                           ;RF_HC05.c: 257:             }
  1923                           	
  1924                           l154:
  1925  0014E6                     	line	259
  1926                           ;RF_HC05.c: 259:         }
  1927                           	goto	l2181
  1928  0014E6  EFCB  F00A         	line	260
  1929                           ;RF_HC05.c: 260:         else if(BT_data_in=='4')
  1930                           	
  1931                           l153:
  1932  0014EA                     	
  1933                           l2159:
  1934  0014EA                     		movlw	52
  1935  0014EA  0E34               	xorwf	((c:_BT_data_in)),c,w
  1936  0014EC  1848               	btfss	status,2
  1937  0014EE  A4D8               	goto	u2081
  1938  0014F0  EF7C  F00A         	goto	u2080
  1939  0014F4  EF7E  F00A         
  1940                           u2081:
  1941  0014F8                     	goto	l2169
  1942  0014F8  EF99  F00A         u2080:
  1943  0014FC                     	line	262
  1944                           	
  1945                           l2161:
  1946  0014FC                     ;RF_HC05.c: 261:         {;RF_HC05.c: 262:             mspeedval = 4;
  1947                           	movlw	high(04h)
  1948  0014FC  0E00               	movwf	((c:_mspeedval+1)),c
  1949  0014FE  6E47               	movlw	low(04h)
  1950  001500  0E04               	movwf	((c:_mspeedval)),c
  1951  001502  6E46               	line	264
  1952                           	
  1953                           l2163:
  1954  001504                     ;RF_HC05.c: 264:             if(fbtext == 1)
  1955                           		decf	((c:_fbtext)),c,w
  1956  001504  0444               iorwf	((c:_fbtext+1)),c,w
  1957  001506  1045               	btfss	status,2
  1958  001508  A4D8               	goto	u2091
  1959  00150A  EF89  F00A         	goto	u2090
  1960  00150E  EF8B  F00A         
  1961                           u2091:
  1962  001512                     	goto	l2181
  1963  001512  EFCB  F00A         u2090:
  1964  001516                     	line	266
  1965                           	
  1966                           l2165:
  1967  001516                     ;RF_HC05.c: 265:             {;RF_HC05.c: 266:             USART_SendString(" Right ");

  1968                           		movlw	low(STR_12)
  1969  001516  0E6B               	movwf	((c:USART_SendString@out)),c
  1970  001518  6E02               	movlw	high(STR_12)
  1971  00151A  0E08               	movwf	((c:USART_SendString@out+1)),c
  1972  00151C  6E03               
  1973                           	call	_USART_SendString	;wreg free
  1974  00151E  ECC0  F00D         	line	267
  1975                           	
  1976                           l2167:
  1977  001522                     ;RF_HC05.c: 267:             fbtext = 0;
  1978                           	movlw	high(0)
  1979  001522  0E00               	movwf	((c:_fbtext+1)),c
  1980  001524  6E45               	movlw	low(0)
  1981  001526  0E00               	movwf	((c:_fbtext)),c
  1982  001528  6E44               	goto	l2181
  1983  00152A  EFCB  F00A         	line	268
  1984                           ;RF_HC05.c: 268:             }
  1985                           	
  1986                           l157:
  1987  00152E                     	line	270
  1988                           ;RF_HC05.c: 270:         }
  1989                           	goto	l2181
  1990  00152E  EFCB  F00A         	line	271
  1991                           ;RF_HC05.c: 271:         else if(BT_data_in=='5')
  1992                           	
  1993                           l156:
  1994  001532                     	
  1995                           l2169:
  1996  001532                     		movlw	53
  1997  001532  0E35               	xorwf	((c:_BT_data_in)),c,w
  1998  001534  1848               	btfss	status,2
  1999  001536  A4D8               	goto	u2101
  2000  001538  EFA0  F00A         	goto	u2100
  2001  00153C  EFA2  F00A         
  2002                           u2101:
  2003  001540                     	goto	l2179
  2004  001540  EFBD  F00A         u2100:
  2005  001544                     	line	273
  2006                           	
  2007                           l2171:
  2008  001544                     ;RF_HC05.c: 272:         {;RF_HC05.c: 273:             mspeedval = 0;
  2009                           	movlw	high(0)
  2010  001544  0E00               	movwf	((c:_mspeedval+1)),c
  2011  001546  6E47               	movlw	low(0)
  2012  001548  0E00               	movwf	((c:_mspeedval)),c
  2013  00154A  6E46               	line	275
  2014                           	
  2015                           l2173:
  2016  00154C                     ;RF_HC05.c: 275:             if(fbtext == 1)
  2017                           		decf	((c:_fbtext)),c,w
  2018  00154C  0444               iorwf	((c:_fbtext+1)),c,w
  2019  00154E  1045               	btfss	status,2
  2020  001550  A4D8               	goto	u2111
  2021  001552  EFAD  F00A         	goto	u2110
  2022  001556  EFAF  F00A         
  2023                           u2111:
  2024  00155A                     	goto	l2181
  2025  00155A  EFCB  F00A         u2110:
  2026  00155E                     	line	277
  2027                           	
  2028                           l2175:
  2029  00155E                     ;RF_HC05.c: 276:             {;RF_HC05.c: 277:             USART_SendString(" Stop ");
  2030                           		movlw	low(STR_13)
  2031  00155E  0E82               	movwf	((c:USART_SendString@out)),c
  2032  001560  6E02               	movlw	high(STR_13)
  2033  001562  0E08               	movwf	((c:USART_SendString@out+1)),c
  2034  001564  6E03               
  2035                           	call	_USART_SendString	;wreg free
  2036  001566  ECC0  F00D         	line	278
  2037                           	
  2038                           l2177:
  2039  00156A                     ;RF_HC05.c: 278:             fbtext = 0;
  2040                           	movlw	high(0)
  2041  00156A  0E00               	movwf	((c:_fbtext+1)),c
  2042  00156C  6E45               	movlw	low(0)
  2043  00156E  0E00               	movwf	((c:_fbtext)),c
  2044  001570  6E44               	goto	l2181
  2045  001572  EFCB  F00A         	line	279
  2046                           ;RF_HC05.c: 279:             }
  2047                           	
  2048                           l160:
  2049  001576                     	line	281
  2050                           ;RF_HC05.c: 281:         }
  2051                           	goto	l2181
  2052  001576  EFCB  F00A         	line	282
  2053                           ;RF_HC05.c: 282:         else
  2054                           	
  2055                           l159:
  2056  00157A                     	line	284
  2057                           	
  2058                           l2179:
  2059  00157A                     ;RF_HC05.c: 283:         {;RF_HC05.c: 284:             mspeedval = 0;
  2060                           	movlw	high(0)
  2061  00157A  0E00               	movwf	((c:_mspeedval+1)),c
  2062  00157C  6E47               	movlw	low(0)
  2063  00157E  0E00               	movwf	((c:_mspeedval)),c
  2064  001580  6E46               	goto	l2181
  2065  001582  EFCB  F00A         	line	286
  2066                           ;RF_HC05.c: 286:         }
  2067                           	
  2068                           l161:
  2069  001586                     	goto	l2181
  2070  001586  EFCB  F00A         	
  2071                           l158:
  2072  00158A                     	goto	l2181
  2073  00158A  EFCB  F00A         	
  2074                           l155:
  2075  00158E                     	goto	l2181
  2076  00158E  EFCB  F00A         	
  2077                           l152:
  2078  001592                     	goto	l2181
  2079  001592  EFCB  F00A         	
  2080                           l149:
  2081  001596                     	line	288
  2082                           	
  2083                           l2181:
  2084  001596                     ;RF_HC05.c: 288:         mspeedfunc(mspeedval);
  2085                           	movff	(c:_mspeedval),(c:mspeedfunc@mspeedval)
  2086  001596  C046  F001         	movff	(c:_mspeedval+1),(c:mspeedfunc@mspeedval+1)
  2087  00159A  C047  F002         	call	_mspeedfunc	;wreg free
  2088  00159E  EC32  F00C         	line	289
  2089                           	
  2090                           l162:
  2091  0015A2                     	return	;funcret
  2092  0015A2  0012               	opt stack 0
  2093                           GLOBAL	__end_of_bluetoothint
  2094                           	__end_of_bluetoothint:
  2095  0015A4                     	signat	_bluetoothint,89
  2096                           	global	_mspeedfunc
  2097                           
  2098 ;; *************** function _mspeedfunc *****************
  2099 ;; Defined at:
  2100 ;;		line 291 in file "RF_HC05.c"
  2101 ;; Parameters:    Size  Location     Type
  2102 ;;  mspeedval       2    0[COMRAM] int 
  2103 ;; Auto vars:     Size  Location     Type
  2104 ;;		None
  2105 ;; Return value:  Size  Location     Type
  2106 ;;                  1    wreg      void 
  2107 ;; Registers used:
  2108 ;;		wreg, status,2, status,0
  2109 ;; Tracked objects:
  2110 ;;		On entry : 0/0
  2111 ;;		On exit  : 0/0
  2112 ;;		Unchanged: 0/0
  2113 ;; Data sizes:     COMRAM   BANK0   BANK1   BANK2   BANK3   BANK4   BANK5   BANK6   BANK7
  2114 ;;      Params:         2       0       0       0       0       0       0       0       0
  2115 ;;      Locals:         0       0       0       0       0       0       0       0       0
  2116 ;;      Temps:          0       0       0       0       0       0       0       0       0
  2117 ;;      Totals:         2       0       0       0       0       0       0       0       0
  2118 ;;Total ram usage:        2 bytes
  2119 ;; Hardware stack levels used:    1
  2120 ;; This function calls:
  2121 ;;		Nothing
  2122 ;; This function is called by:
  2123 ;;		_bluetoothint
  2124 ;; This function uses a non-reentrant model
  2125 ;;
  2126                           psect	text2,class=CODE,space=0,reloc=2,group=0
  2127                           	line	291
  2128                           global __ptext2
  2129                           __ptext2:
  2130  001864                     psect	text2
  2131                           	file	"RF_HC05.c"
  2132                           	line	291
  2133                           	global	__size_of_mspeedfunc
  2134                           	__size_of_mspeedfunc	equ	__end_of_mspeedfunc-_mspeedfunc
  2135  0000                     	
  2136                           _mspeedfunc:
  2137  001864                     ;incstack = 0
  2138                           	opt	stack 29
  2139                           	line	293
  2140                           	
  2141                           l1625:
  2142  001864                     ;RF_HC05.c: 291: void mspeedfunc(mspeedval);RF_HC05.c: 292: {;RF_HC05.c: 293:     if (ms
                                 peedval == 0)
  2143                           	movf	((c:mspeedfunc@mspeedval)),c,w
  2144  001864  5001               iorwf	((c:mspeedfunc@mspeedval+1)),c,w
  2145  001866  1002               	btfss	status,2
  2146  001868  A4D8               	goto	u1141
  2147  00186A  EF39  F00C         	goto	u1140
  2148  00186E  EF3B  F00C         
  2149                           u1141:
  2150  001872                     	goto	l1629
  2151  001872  EF41  F00C         u1140:
  2152  001876                     	line	295
  2153                           	
  2154                           l1627:
  2155  001876                     ;RF_HC05.c: 294:     {;RF_HC05.c: 295:         LATDbits.LATD0 = 0;
  2156                           	bcf	((c:3980)),c,0	;volatile
  2157  001876  908C               	line	296
  2158                           ;RF_HC05.c: 296:         LATDbits.LATD1 = 0;
  2159                           	bcf	((c:3980)),c,1	;volatile
  2160  001878  928C               	line	297
  2161                           ;RF_HC05.c: 297:         LATDbits.LATD3 = 0;
  2162                           	bcf	((c:3980)),c,3	;volatile
  2163  00187A  968C               	line	298
  2164                           ;RF_HC05.c: 298:         LATDbits.LATD2 = 0;
  2165                           	bcf	((c:3980)),c,2	;volatile
  2166  00187C  948C               	line	301
  2167                           ;RF_HC05.c: 301:     }
  2168                           	goto	l175
  2169  00187E  EF8E  F00C         	line	302
  2170                           ;RF_HC05.c: 302:     else if (mspeedval == 1)
  2171                           	
  2172                           l165:
  2173  001882                     	
  2174                           l1629:
  2175  001882                     		decf	((c:mspeedfunc@mspeedval)),c,w
  2176  001882  0401               iorwf	((c:mspeedfunc@mspeedval+1)),c,w
  2177  001884  1002               	btfss	status,2
  2178  001886  A4D8               	goto	u1151
  2179  001888  EF48  F00C         	goto	u1150
  2180  00188C  EF4A  F00C         
  2181                           u1151:
  2182  001890                     	goto	l1633
  2183  001890  EF50  F00C         u1150:
  2184  001894                     	line	305
  2185                           	
  2186                           l1631:
  2187  001894                     ;RF_HC05.c: 303:     {;RF_HC05.c: 305:         LATDbits.LATD0 = 1;
  2188                           	bsf	((c:3980)),c,0	;volatile
  2189  001894  808C               	line	306
  2190                           ;RF_HC05.c: 306:         LATDbits.LATD1 = 0;
  2191                           	bcf	((c:3980)),c,1	;volatile
  2192  001896  928C               	line	307
  2193                           ;RF_HC05.c: 307:         LATDbits.LATD3 = 1;
  2194                           	bsf	((c:3980)),c,3	;volatile
  2195  001898  868C               	line	308
  2196                           ;RF_HC05.c: 308:         LATDbits.LATD2 = 0;
  2197                           	bcf	((c:3980)),c,2	;volatile
  2198  00189A  948C               	line	310
  2199                           ;RF_HC05.c: 310:     }
  2200                           	goto	l175
  2201  00189C  EF8E  F00C         	line	311
  2202                           ;RF_HC05.c: 311:     else if (mspeedval == 2)
  2203                           	
  2204                           l167:
  2205  0018A0                     	
  2206                           l1633:
  2207  0018A0                     		movlw	2
  2208  0018A0  0E02               	xorwf	((c:mspeedfunc@mspeedval)),c,w
  2209  0018A2  1801               iorwf	((c:mspeedfunc@mspeedval+1)),c,w
  2210  0018A4  1002               	btfss	status,2
  2211  0018A6  A4D8               	goto	u1161
  2212  0018A8  EF58  F00C         	goto	u1160
  2213  0018AC  EF5A  F00C         
  2214                           u1161:
  2215  0018B0                     	goto	l1637
  2216  0018B0  EF60  F00C         u1160:
  2217  0018B4                     	line	313
  2218                           	
  2219                           l1635:
  2220  0018B4                     ;RF_HC05.c: 312:     {;RF_HC05.c: 313:         LATDbits.LATD0 = 0;
  2221                           	bcf	((c:3980)),c,0	;volatile
  2222  0018B4  908C               	line	314
  2223                           ;RF_HC05.c: 314:         LATDbits.LATD1 = 1;
  2224                           	bsf	((c:3980)),c,1	;volatile
  2225  0018B6  828C               	line	315
  2226                           ;RF_HC05.c: 315:         LATDbits.LATD3 = 0;
  2227                           	bcf	((c:3980)),c,3	;volatile
  2228  0018B8  968C               	line	316
  2229                           ;RF_HC05.c: 316:         LATDbits.LATD2 = 1;
  2230                           	bsf	((c:3980)),c,2	;volatile
  2231  0018BA  848C               	line	318
  2232                           ;RF_HC05.c: 318:     }
  2233                           	goto	l175
  2234  0018BC  EF8E  F00C         	line	319
  2235                           ;RF_HC05.c: 319:     else if (mspeedval == 3)
  2236                           	
  2237                           l169:
  2238  0018C0                     	
  2239                           l1637:
  2240  0018C0                     		movlw	3
  2241  0018C0  0E03               	xorwf	((c:mspeedfunc@mspeedval)),c,w
  2242  0018C2  1801               iorwf	((c:mspeedfunc@mspeedval+1)),c,w
  2243  0018C4  1002               	btfss	status,2
  2244  0018C6  A4D8               	goto	u1171
  2245  0018C8  EF68  F00C         	goto	u1170
  2246  0018CC  EF6A  F00C         
  2247                           u1171:
  2248  0018D0                     	goto	l1641
  2249  0018D0  EF70  F00C         u1170:
  2250  0018D4                     	line	321
  2251                           	
  2252                           l1639:
  2253  0018D4                     ;RF_HC05.c: 320:     {;RF_HC05.c: 321:         LATDbits.LATD0 = 1;
  2254                           	bsf	((c:3980)),c,0	;volatile
  2255  0018D4  808C               	line	322
  2256                           ;RF_HC05.c: 322:         LATDbits.LATD1 = 0;
  2257                           	bcf	((c:3980)),c,1	;volatile
  2258  0018D6  928C               	line	323
  2259                           ;RF_HC05.c: 323:         LATDbits.LATD3 = 0;
  2260                           	bcf	((c:3980)),c,3	;volatile
  2261  0018D8  968C               	line	324
  2262                           ;RF_HC05.c: 324:         LATDbits.LATD2 = 1;
  2263                           	bsf	((c:3980)),c,2	;volatile
  2264  0018DA  848C               	line	326
  2265                           ;RF_HC05.c: 326:     }
  2266                           	goto	l175
  2267  0018DC  EF8E  F00C         	line	327
  2268                           ;RF_HC05.c: 327:     else if (mspeedval == 4)
  2269                           	
  2270                           l171:
  2271  0018E0                     	
  2272                           l1641:
  2273  0018E0                     		movlw	4
  2274  0018E0  0E04               	xorwf	((c:mspeedfunc@mspeedval)),c,w
  2275  0018E2  1801               iorwf	((c:mspeedfunc@mspeedval+1)),c,w
  2276  0018E4  1002               	btfss	status,2
  2277  0018E6  A4D8               	goto	u1181
  2278  0018E8  EF78  F00C         	goto	u1180
  2279  0018EC  EF7A  F00C         
  2280                           u1181:
  2281  0018F0                     	goto	l173
  2282  0018F0  EF80  F00C         u1180:
  2283  0018F4                     	line	329
  2284                           	
  2285                           l1643:
  2286  0018F4                     ;RF_HC05.c: 328:     {;RF_HC05.c: 329:         LATDbits.LATD0 = 0;
  2287                           	bcf	((c:3980)),c,0	;volatile
  2288  0018F4  908C               	line	330
  2289                           ;RF_HC05.c: 330:         LATDbits.LATD1 = 1;
  2290                           	bsf	((c:3980)),c,1	;volatile
  2291  0018F6  828C               	line	331
  2292                           ;RF_HC05.c: 331:         LATDbits.LATD3 = 1;
  2293                           	bsf	((c:3980)),c,3	;volatile
  2294  0018F8  868C               	line	332
  2295                           ;RF_HC05.c: 332:         LATDbits.LATD2 = 0;
  2296                           	bcf	((c:3980)),c,2	;volatile
  2297  0018FA  948C               	line	334
  2298                           ;RF_HC05.c: 334:     }
  2299                           	goto	l175
  2300  0018FC  EF8E  F00C         	line	335
  2301                           ;RF_HC05.c: 335:     else
  2302                           	
  2303                           l173:
  2304  001900                     	line	337
  2305                           ;RF_HC05.c: 336:     {;RF_HC05.c: 337:         LATDbits.LATD0 = 0;
  2306                           	bcf	((c:3980)),c,0	;volatile
  2307  001900  908C               	line	338
  2308                           ;RF_HC05.c: 338:         LATDbits.LATD1 = 0;
  2309                           	bcf	((c:3980)),c,1	;volatile
  2310  001902  928C               	line	339
  2311                           ;RF_HC05.c: 339:         LATDbits.LATD3 = 0;
  2312                           	bcf	((c:3980)),c,3	;volatile
  2313  001904  968C               	line	340
  2314                           ;RF_HC05.c: 340:         LATDbits.LATD2 = 0;
  2315                           	bcf	((c:3980)),c,2	;volatile
  2316  001906  948C               	goto	l175
  2317  001908  EF8E  F00C         	line	342
  2318                           ;RF_HC05.c: 342:     }
  2319                           	
  2320                           l174:
  2321  00190C                     	goto	l175
  2322  00190C  EF8E  F00C         	
  2323                           l172:
  2324  001910                     	goto	l175
  2325  001910  EF8E  F00C         	
  2326                           l170:
  2327  001914                     	goto	l175
  2328  001914  EF8E  F00C         	
  2329                           l168:
  2330  001918                     	goto	l175
  2331  001918  EF8E  F00C         	
  2332                           l166:
  2333  00191C                     	line	343
  2334                           	
  2335                           l175:
  2336  00191C                     	return	;funcret
  2337  00191C  0012               	opt stack 0
  2338                           GLOBAL	__end_of_mspeedfunc
  2339                           	__end_of_mspeedfunc:
  2340  00191E                     	signat	_mspeedfunc,4217
  2341                           	global	_USART_SendString
  2342                           
  2343 ;; *************** function _USART_SendString *****************
  2344 ;; Defined at:
  2345 ;;		line 57 in file "RF_HC05.c"
  2346 ;; Parameters:    Size  Location     Type
  2347 ;;  out             2    1[COMRAM] PTR const unsigned char 
  2348 ;;		 -> STR_13(7), STR_12(8), STR_11(7), STR_10(10), 
  2349 ;;		 -> STR_9(7), STR_4(14), STR_1(8), 
  2350 ;; Auto vars:     Size  Location     Type
  2351 ;;		None
  2352 ;; Return value:  Size  Location     Type
  2353 ;;                  1    wreg      void 
  2354 ;; Registers used:
  2355 ;;		wreg, status,2, status,0, tblptrl, tblptrh, tblptru, cstack
  2356 ;; Tracked objects:
  2357 ;;		On entry : 0/0
  2358 ;;		On exit  : 0/0
  2359 ;;		Unchanged: 0/0
  2360 ;; Data sizes:     COMRAM   BANK0   BANK1   BANK2   BANK3   BANK4   BANK5   BANK6   BANK7
  2361 ;;      Params:         2       0       0       0       0       0       0       0       0
  2362 ;;      Locals:         0       0       0       0       0       0       0       0       0
  2363 ;;      Temps:          0       0       0       0       0       0       0       0       0
  2364 ;;      Totals:         2       0       0       0       0       0       0       0       0
  2365 ;;Total ram usage:        2 bytes
  2366 ;; Hardware stack levels used:    1
  2367 ;; Hardware stack levels required when called:    1
  2368 ;; This function calls:
  2369 ;;		_USART_TransmitChar
  2370 ;; This function is called by:
  2371 ;;		_main
  2372 ;;		_bluetoothint
  2373 ;; This function uses a non-reentrant model
  2374 ;;
  2375                           psect	text3,class=CODE,space=0,reloc=2,group=0
  2376                           	line	57
  2377                           global __ptext3
  2378                           __ptext3:
  2379  001B80                     psect	text3
  2380                           	file	"RF_HC05.c"
  2381                           	line	57
  2382                           	global	__size_of_USART_SendString
  2383                           	__size_of_USART_SendString	equ	__end_of_USART_SendString-_USART_SendString
  2384  0000                     	
  2385                           _USART_SendString:
  2386  001B80                     ;incstack = 0
  2387                           	opt	stack 28
  2388                           	line	59
  2389                           	
  2390                           l1589:
  2391  001B80                     ;RF_HC05.c: 57: void USART_SendString(const char *out);RF_HC05.c: 58: {;RF_HC05.c: 59:  
                                    while(*out!='\0')
  2392                           	goto	l1595
  2393  001B80  EFCE  F00D         	
  2394                           l91:
  2395  001B84                     	line	61
  2396                           	
  2397                           l1591:
  2398  001B84                     ;RF_HC05.c: 60:     {;RF_HC05.c: 61:         USART_TransmitChar(*out);
  2399                           	movff	(c:USART_SendString@out),tblptrl
  2400  001B84  C002  FFF6         	movff	(c:USART_SendString@out+1),tblptrh
  2401  001B88  C003  FFF7         	if	0	;tblptru may be non-zero
  2402  001B8C                     	clrf	tblptru
  2404  001B8C                     	if	0	;tblptru may be non-zero
  2405  001B8C                     	global __mediumconst
  2406                           movlw	low highword(__mediumconst)
  2409  001B8C                     	tblrd	*
  2410  001B8C  0008               	
  2411                           	movf	tablat,w
  2412  001B8E  50F5               	
  2413                           	call	_USART_TransmitChar
  2414  001B90  EC2A  F00E         	line	62
  2415                           	
  2416                           l1593:
  2417  001B94                     ;RF_HC05.c: 62:         out++;
  2418                           	infsnz	((c:USART_SendString@out)),c
  2419  001B94  4A02               	incf	((c:USART_SendString@out+1)),c
  2420  001B96  2A03               	goto	l1595
  2421  001B98  EFCE  F00D         	line	63
  2422                           ;RF_HC05.c: 63:     }
  2423                           	
  2424                           l90:
  2425  001B9C                     	line	59
  2426                           	
  2427                           l1595:
  2428  001B9C                     ;RF_HC05.c: 59:     while(*out!='\0')
  2429                           	movff	(c:USART_SendString@out),tblptrl
  2430  001B9C  C002  FFF6         	movff	(c:USART_SendString@out+1),tblptrh
  2431  001BA0  C003  FFF7         	if	0	;tblptru may be non-zero
  2432  001BA4                     	clrf	tblptru
  2434  001BA4                     	if	0	;tblptru may be non-zero
  2435  001BA4                     	global __mediumconst
  2436                           movlw	low highword(__mediumconst)
  2439  001BA4                     	tblrd	*
  2440  001BA4  0008               	
  2441                           	movf	tablat,w
  2442  001BA6  50F5               	iorlw	0
  2443  001BA8  0900               	btfss	status,2
  2444  001BAA  A4D8               	goto	u1121
  2445  001BAC  EFDA  F00D         	goto	u1120
  2446  001BB0  EFDC  F00D         u1121:
  2447  001BB4                     	goto	l1591
  2448  001BB4  EFC2  F00D         u1120:
  2449  001BB8                     	goto	l93
  2450  001BB8  EFDE  F00D         	
  2451                           l92:
  2452  001BBC                     	line	64
  2453                           	
  2454                           l93:
  2455  001BBC                     	return	;funcret
  2456  001BBC  0012               	opt stack 0
  2457                           GLOBAL	__end_of_USART_SendString
  2458                           	__end_of_USART_SendString:
  2459  001BBE                     	signat	_USART_SendString,4217
  2460                           	global	_USART_TransmitChar
  2461                           
  2462 ;; *************** function _USART_TransmitChar *****************
  2463 ;; Defined at:
  2464 ;;		line 47 in file "RF_HC05.c"
  2465 ;; Parameters:    Size  Location     Type
  2466 ;;  out             1    wreg     unsigned char 
  2467 ;; Auto vars:     Size  Location     Type
  2468 ;;  out             1    0[COMRAM] unsigned char 
  2469 ;; Return value:  Size  Location     Type
  2470 ;;                  1    wreg      void 
  2471 ;; Registers used:
  2472 ;;		wreg
  2473 ;; Tracked objects:
  2474 ;;		On entry : 0/0
  2475 ;;		On exit  : 0/0
  2476 ;;		Unchanged: 0/0
  2477 ;; Data sizes:     COMRAM   BANK0   BANK1   BANK2   BANK3   BANK4   BANK5   BANK6   BANK7
  2478 ;;      Params:         0       0       0       0       0       0       0       0       0
  2479 ;;      Locals:         1       0       0       0       0       0       0       0       0
  2480 ;;      Temps:          0       0       0       0       0       0       0       0       0
  2481 ;;      Totals:         1       0       0       0       0       0       0       0       0
  2482 ;;Total ram usage:        1 bytes
  2483 ;; Hardware stack levels used:    1
  2484 ;; This function calls:
  2485 ;;		Nothing
  2486 ;; This function is called by:
  2487 ;;		_USART_SendString
  2488 ;; This function uses a non-reentrant model
  2489 ;;
  2490                           psect	text4,class=CODE,space=0,reloc=2,group=0
  2491                           	line	47
  2492                           global __ptext4
  2493                           __ptext4:
  2494  001C54                     psect	text4
  2495                           	file	"RF_HC05.c"
  2496                           	line	47
  2497                           	global	__size_of_USART_TransmitChar
  2498                           	__size_of_USART_TransmitChar	equ	__end_of_USART_TransmitChar-_USART_TransmitChar
  2499  0000                     	
  2500                           _USART_TransmitChar:
  2501  001C54                     ;incstack = 0
  2502                           	opt	stack 28
  2503                           ;USART_TransmitChar@out stored from wreg
  2504                           	movwf	((c:USART_TransmitChar@out)),c
  2505  001C54  6E01               	line	49
  2506                           	
  2507                           l867:
  2508  001C56                     ;RF_HC05.c: 47: void USART_TransmitChar(char out);RF_HC05.c: 48: {;RF_HC05.c: 49:     wh
                                 ile(TXIF==0);
  2509                           	goto	l78
  2510  001C56  EF2D  F00E         	
  2511                           l79:
  2512  001C5A                     	
  2513                           l78:
  2514  001C5A                     	btfss	c:(31988/8),(31988)&7	;volatile
  2515  001C5A  A89E               	goto	u41
  2516  001C5C  EF32  F00E         	goto	u40
  2517  001C60  EF34  F00E         u41:
  2518  001C64                     	goto	l78
  2519  001C64  EF2D  F00E         u40:
  2520  001C68                     	goto	l869
  2521  001C68  EF36  F00E         	
  2522                           l80:
  2523  001C6C                     	line	50
  2524                           	
  2525                           l869:
  2526  001C6C                     ;RF_HC05.c: 50:     TXREG=out;
  2527                           	movff	(c:USART_TransmitChar@out),(c:4013)	;volatile
  2528  001C6C  C001  FFAD         	line	51
  2529                           	
  2530                           l81:
  2531  001C70                     	return	;funcret
  2532  001C70  0012               	opt stack 0
  2533                           GLOBAL	__end_of_USART_TransmitChar
  2534                           	__end_of_USART_TransmitChar:
  2535  001C72                     	signat	_USART_TransmitChar,4217
  2536                           	global	_USART_Init
  2537                           
  2538 ;; *************** function _USART_Init *****************
  2539 ;; Defined at:
  2540 ;;		line 36 in file "RF_HC05.c"
  2541 ;; Parameters:    Size  Location     Type
  2542 ;;  baud_rate       4   59[COMRAM] long 
  2543 ;; Auto vars:     Size  Location     Type
  2544 ;;  temp            4   63[COMRAM] float 
  2545 ;; Return value:  Size  Location     Type
  2546 ;;                  1    wreg      void 
  2547 ;; Registers used:
  2548 ;;		wreg, status,2, status,0, cstack
  2549 ;; Tracked objects:
  2550 ;;		On entry : 0/0
  2551 ;;		On exit  : 0/0
  2552 ;;		Unchanged: 0/0
  2553 ;; Data sizes:     COMRAM   BANK0   BANK1   BANK2   BANK3   BANK4   BANK5   BANK6   BANK7
  2554 ;;      Params:         4       0       0       0       0       0       0       0       0
  2555 ;;      Locals:         4       0       0       0       0       0       0       0       0
  2556 ;;      Temps:          0       0       0       0       0       0       0       0       0
  2557 ;;      Totals:         8       0       0       0       0       0       0       0       0
  2558 ;;Total ram usage:        8 bytes
  2559 ;; Hardware stack levels used:    1
  2560 ;; Hardware stack levels required when called:    1
  2561 ;; This function calls:
  2562 ;;		___fladd
  2563 ;;		___fldiv
  2564 ;;		___fltol
  2565 ;;		___xxtofl
  2566 ;; This function is called by:
  2567 ;;		_main
  2568 ;; This function uses a non-reentrant model
  2569 ;;
  2570                           psect	text5,class=CODE,space=0,reloc=2,group=0
  2571                           	line	36
  2572                           global __ptext5
  2573                           __ptext5:
  2574  00191E                     psect	text5
  2575                           	file	"RF_HC05.c"
  2576                           	line	36
  2577                           	global	__size_of_USART_Init
  2578                           	__size_of_USART_Init	equ	__end_of_USART_Init-_USART_Init
  2579  0000                     	
  2580                           _USART_Init:
  2581  00191E                     ;incstack = 0
  2582                           	opt	stack 29
  2583                           	line	39
  2584                           	
  2585                           l2075:
  2586  00191E                     ;RF_HC05.c: 36: void USART_Init(long baud_rate);RF_HC05.c: 37: {;RF_HC05.c: 38:     floa
                                 t temp;;RF_HC05.c: 39:     ANSELC=1;
  2587                           	movlw	low(01h)
  2588  00191E  0E01               	movlb	15	; () banked
  2589  001920  010F               	movwf	((3933))&0ffh	;volatile
  2590  001922  6F5D               	line	40
  2591                           	
  2592                           l2077:; BSR set to: 15
  2593  001924                     
  2594                           ;RF_HC05.c: 40:     TRISC6=1;
  2595                           	bsf	c:(31910/8),(31910)&7	;volatile
  2596  001924  8C94               	line	41
  2597                           	
  2598                           l2079:; BSR set to: 15
  2599  001926                     
  2600                           ;RF_HC05.c: 41:     TRISC7=1;
  2601                           	bsf	c:(31911/8),(31911)&7	;volatile
  2602  001926  8E94               	line	42
  2603                           	
  2604                           l2081:; BSR set to: 15
  2605  001928                     
  2606                           ;RF_HC05.c: 42:     temp=(((float)(8000000/64)/(float)baud_rate)-1);
  2607                           	movff	(c:USART_Init@baud_rate),(c:___xxtofl@val)
  2608  001928  C03C  F001         	movff	(c:USART_Init@baud_rate+1),(c:___xxtofl@val+1)
  2609  00192C  C03D  F002         	movff	(c:USART_Init@baud_rate+2),(c:___xxtofl@val+2)
  2610  001930  C03E  F003         	movff	(c:USART_Init@baud_rate+3),(c:___xxtofl@val+3)
  2611  001934  C03F  F004         	movlw	(01h)&0ffh
  2612  001938  0E01               	
  2613                           	call	___xxtofl
  2614  00193A  EC1B  F009         	movff	0+?___xxtofl,(c:___fldiv@a)
  2615  00193E  C001  F013         	movff	1+?___xxtofl,(c:___fldiv@a+1)
  2616  001942  C002  F014         	movff	2+?___xxtofl,(c:___fldiv@a+2)
  2617  001946  C003  F015         	movff	3+?___xxtofl,(c:___fldiv@a+3)
  2618  00194A  C004  F016         	
  2619                           	movlw	low(normalize32(0x47f42400))
  2620  00194E  0E00               	movwf	((c:___fldiv@b)),c
  2621  001950  6E0F               	movlw	high(normalize32(0x47f42400))
  2622  001952  0E24               	movwf	((c:___fldiv@b+1)),c
  2623  001954  6E10               	movlw	low highword(normalize32(0x47f42400))
  2624  001956  0EF4               	movwf	((c:___fldiv@b+2)),c
  2625  001958  6E11               	movlw	high highword(normalize32(0x47f42400))
  2626  00195A  0E47               	movwf	((c:___fldiv@b+3)),c
  2627  00195C  6E12               	call	___fldiv	;wreg free
  2628  00195E  EC0B  F007         	movff	0+?___fldiv,(c:___fladd@b)
  2629  001962  C00F  F028         	movff	1+?___fldiv,(c:___fladd@b+1)
  2630  001966  C010  F029         	movff	2+?___fldiv,(c:___fladd@b+2)
  2631  00196A  C011  F02A         	movff	3+?___fldiv,(c:___fladd@b+3)
  2632  00196E  C012  F02B         	
  2633                           	movlw	low(normalize32(0xbf800000))
  2634  001972  0E00               	movwf	((c:___fladd@a)),c
  2635  001974  6E2C               	movlw	high(normalize32(0xbf800000))
  2636  001976  0E00               	movwf	((c:___fladd@a+1)),c
  2637  001978  6E2D               	movlw	low highword(normalize32(0xbf800000))
  2638  00197A  0E80               	movwf	((c:___fladd@a+2)),c
  2639  00197C  6E2E               	movlw	high highword(normalize32(0xbf800000))
  2640  00197E  0EBF               	movwf	((c:___fladd@a+3)),c
  2641  001980  6E2F               	call	___fladd	;wreg free
  2642  001982  EC49  F004         	movff	0+?___fladd,(c:USART_Init@temp)
  2643  001986  C028  F040         	movff	1+?___fladd,(c:USART_Init@temp+1)
  2644  00198A  C029  F041         	movff	2+?___fladd,(c:USART_Init@temp+2)
  2645  00198E  C02A  F042         	movff	3+?___fladd,(c:USART_Init@temp+3)
  2646  001992  C02B  F043         	
  2647                           	line	43
  2648                           	
  2649                           l2083:
  2650  001996                     ;RF_HC05.c: 43:     SPBRG=(int)temp;
  2651                           	movff	(c:USART_Init@temp),(c:___fltol@f1)
  2652  001996  C040  F001         	movff	(c:USART_Init@temp+1),(c:___fltol@f1+1)
  2653  00199A  C041  F002         	movff	(c:USART_Init@temp+2),(c:___fltol@f1+2)
  2654  00199E  C042  F003         	movff	(c:USART_Init@temp+3),(c:___fltol@f1+3)
  2655  0019A2  C043  F004         	call	___fltol	;wreg free
  2656  0019A6  EC89  F00B         	movf	(0+?___fltol),c,w
  2657  0019AA  5001               	movwf	((c:4015)),c	;volatile
  2658  0019AC  6EAF               	line	44
  2659                           ;RF_HC05.c: 44:     TXSTA=0x20;
  2660                           	movlw	low(020h)
  2661  0019AE  0E20               	movwf	((c:4012)),c	;volatile
  2662  0019B0  6EAC               	line	45
  2663                           ;RF_HC05.c: 45:     RCSTA=0x90;
  2664                           	movlw	low(090h)
  2665  0019B2  0E90               	movwf	((c:4011)),c	;volatile
  2666  0019B4  6EAB               	line	46
  2667                           	
  2668                           l75:
  2669  0019B6                     	return	;funcret
  2670  0019B6  0012               	opt stack 0
  2671                           GLOBAL	__end_of_USART_Init
  2672                           	__end_of_USART_Init:
  2673  0019B8                     	signat	_USART_Init,4217
  2674                           	global	___xxtofl
  2675                           
  2676 ;; *************** function ___xxtofl *****************
  2677 ;; Defined at:
  2678 ;;		line 10 in file "/Applications/microchip/xc8/v2.00/pic/sources/c99/common/xxtofl.c"
  2679 ;; Parameters:    Size  Location     Type
  2680 ;;  sign            1    wreg     unsigned char 
  2681 ;;  val             4    0[COMRAM] long 
  2682 ;; Auto vars:     Size  Location     Type
  2683 ;;  sign            1    8[COMRAM] unsigned char 
  2684 ;;  arg             4   10[COMRAM] unsigned long 
  2685 ;;  exp             1    9[COMRAM] unsigned char 
  2686 ;; Return value:  Size  Location     Type
  2687 ;;                  4    0[COMRAM] unsigned char 
  2688 ;; Registers used:
  2689 ;;		wreg, status,2, status,0
  2690 ;; Tracked objects:
  2691 ;;		On entry : 0/0
  2692 ;;		On exit  : 0/0
  2693 ;;		Unchanged: 0/0
  2694 ;; Data sizes:     COMRAM   BANK0   BANK1   BANK2   BANK3   BANK4   BANK5   BANK6   BANK7
  2695 ;;      Params:         4       0       0       0       0       0       0       0       0
  2696 ;;      Locals:         6       0       0       0       0       0       0       0       0
  2697 ;;      Temps:          4       0       0       0       0       0       0       0       0
  2698 ;;      Totals:        14       0       0       0       0       0       0       0       0
  2699 ;;Total ram usage:       14 bytes
  2700 ;; Hardware stack levels used:    1
  2701 ;; This function calls:
  2702 ;;		Nothing
  2703 ;; This function is called by:
  2704 ;;		_USART_Init
  2705 ;; This function uses a non-reentrant model
  2706 ;;
  2707                           psect	text6,class=CODE,space=0,reloc=2,group=1
  2708                           	file	"/Applications/microchip/xc8/v2.00/pic/sources/c99/common/xxtofl.c"
  2709                           	line	10
  2710                           global __ptext6
  2711                           __ptext6:
  2712  001236                     psect	text6
  2713                           	file	"/Applications/microchip/xc8/v2.00/pic/sources/c99/common/xxtofl.c"
  2714                           	line	10
  2715                           	global	__size_of___xxtofl
  2716                           	__size_of___xxtofl	equ	__end_of___xxtofl-___xxtofl
  2717  0000                     	
  2718                           ___xxtofl:
  2719  001236                     ;incstack = 0
  2720                           	opt	stack 29
  2721                           ;___xxtofl@sign stored from wreg
  2722                           	movwf	((c:___xxtofl@sign)),c
  2723  001236  6E09               	line	15
  2724                           	
  2725                           l2029:
  2726  001238                     	movf	((c:___xxtofl@sign)),c,w
  2727  001238  5009               	btfsc	status,2
  2728  00123A  B4D8               	goto	u1881
  2729  00123C  EF22  F009         	goto	u1880
  2730  001240  EF24  F009         u1881:
  2731  001244                     	goto	l833
  2732  001244  EF46  F009         u1880:
  2733  001248                     	
  2734                           l2031:
  2735  001248                     	btfsc	((c:___xxtofl@val+3)),c,7
  2736  001248  BE04               	goto	u1890
  2737  00124A  EF2B  F009         	goto	u1891
  2738  00124E  EF29  F009         
  2739                           u1891:
  2740  001252                     	goto	l833
  2741  001252  EF46  F009         u1890:
  2742  001256                     	line	16
  2743                           	
  2744                           l2033:
  2745  001256                     	movff	(c:___xxtofl@val),??___xxtofl+0+0
  2746  001256  C001  F005         	movff	(c:___xxtofl@val+1),??___xxtofl+0+0+1
  2747  00125A  C002  F006         	movff	(c:___xxtofl@val+2),??___xxtofl+0+0+2
  2748  00125E  C003  F007         	movff	(c:___xxtofl@val+3),??___xxtofl+0+0+3
  2749  001262  C004  F008         	comf	(??___xxtofl+0+0),c
  2750  001266  1E05               	comf	(??___xxtofl+0+1),c
  2751  001268  1E06               	comf	(??___xxtofl+0+2),c
  2752  00126A  1E07               	comf	(??___xxtofl+0+3),c
  2753  00126C  1E08               	incf	(??___xxtofl+0+0),c
  2754  00126E  2A05               	movlw	0
  2755  001270  0E00               	addwfc	(??___xxtofl+0+1),c
  2756  001272  2206               	addwfc	(??___xxtofl+0+2),c
  2757  001274  2207               	addwfc	(??___xxtofl+0+3),c
  2758  001276  2208               	movff	??___xxtofl+0+0,(c:___xxtofl@arg)
  2759  001278  C005  F00B         	movff	??___xxtofl+0+1,(c:___xxtofl@arg+1)
  2760  00127C  C006  F00C         	movff	??___xxtofl+0+2,(c:___xxtofl@arg+2)
  2761  001280  C007  F00D         	movff	??___xxtofl+0+3,(c:___xxtofl@arg+3)
  2762  001284  C008  F00E         	line	17
  2763                           	goto	l2035
  2764  001288  EF50  F009         	line	18
  2765                           	
  2766                           l833:
  2767  00128C                     	line	19
  2768                           	movff	(c:___xxtofl@val),(c:___xxtofl@arg)
  2769  00128C  C001  F00B         	movff	(c:___xxtofl@val+1),(c:___xxtofl@arg+1)
  2770  001290  C002  F00C         	movff	(c:___xxtofl@val+2),(c:___xxtofl@arg+2)
  2771  001294  C003  F00D         	movff	(c:___xxtofl@val+3),(c:___xxtofl@arg+3)
  2772  001298  C004  F00E         	goto	l2035
  2773  00129C  EF50  F009         	line	20
  2774                           	
  2775                           l834:
  2776  0012A0                     	line	21
  2777                           	
  2778                           l2035:
  2779  0012A0                     	movf	((c:___xxtofl@val)),c,w
  2780  0012A0  5001               iorwf	((c:___xxtofl@val+1)),c,w
  2781  0012A2  1002               iorwf	((c:___xxtofl@val+2)),c,w
  2782  0012A4  1003               iorwf	((c:___xxtofl@val+3)),c,w
  2783  0012A6  1004               	btfss	status,2
  2784  0012A8  A4D8               	goto	u1901
  2785  0012AA  EF59  F009         	goto	u1900
  2786  0012AE  EF5B  F009         
  2787                           u1901:
  2788  0012B2                     	goto	l2041
  2789  0012B2  EF67  F009         u1900:
  2790  0012B6                     	line	22
  2791                           	
  2792                           l2037:
  2793  0012B6                     	movlw	low(normalize32(0x0))
  2794  0012B6  0E00               	movwf	((c:?___xxtofl)),c
  2795  0012B8  6E01               	movlw	high(normalize32(0x0))
  2796  0012BA  0E00               	movwf	((c:?___xxtofl+1)),c
  2797  0012BC  6E02               	movlw	low highword(normalize32(0x0))
  2798  0012BE  0E00               	movwf	((c:?___xxtofl+2)),c
  2799  0012C0  6E03               	movlw	high highword(normalize32(0x0))
  2800  0012C2  0E00               	movwf	((c:?___xxtofl+3)),c
  2801  0012C4  6E04               	goto	l836
  2802  0012C6  EF08  F00A         	
  2803                           l2039:
  2804  0012CA                     	goto	l836
  2805  0012CA  EF08  F00A         	
  2806                           l835:
  2807  0012CE                     	line	23
  2808                           	
  2809                           l2041:
  2810  0012CE                     	movlw	low(096h)
  2811  0012CE  0E96               	movwf	((c:___xxtofl@exp)),c
  2812  0012D0  6E0A               	line	24
  2813                           	goto	l2045
  2814  0012D2  EF73  F009         	
  2815                           l838:
  2816  0012D6                     	line	25
  2817                           	
  2818                           l2043:
  2819  0012D6                     	incf	((c:___xxtofl@exp)),c
  2820  0012D6  2A0A               	line	26
  2821                           	bcf	status,0
  2822  0012D8  90D8               	rrcf	((c:___xxtofl@arg+3)),c
  2823  0012DA  320E               	rrcf	((c:___xxtofl@arg+2)),c
  2824  0012DC  320D               	rrcf	((c:___xxtofl@arg+1)),c
  2825  0012DE  320C               	rrcf	((c:___xxtofl@arg)),c
  2826  0012E0  320B               	goto	l2045
  2827  0012E2  EF73  F009         	line	27
  2828                           	
  2829                           l837:
  2830  0012E6                     	line	24
  2831                           	
  2832                           l2045:
  2833  0012E6                     	movlw	0
  2834  0012E6  0E00               	andwf	((c:___xxtofl@arg)),c,w
  2835  0012E8  140B               	movwf	(??___xxtofl+0+0)&0ffh,c
  2836  0012EA  6E05               	movlw	0
  2837  0012EC  0E00               	andwf	((c:___xxtofl@arg+1)),c,w
  2838  0012EE  140C               	movwf	1+(??___xxtofl+0+0)&0ffh,c
  2839  0012F0  6E06               	
  2840                           	movlw	0
  2841  0012F2  0E00               	andwf	((c:___xxtofl@arg+2)),c,w
  2842  0012F4  140D               	movwf	2+(??___xxtofl+0+0)&0ffh,c
  2843  0012F6  6E07               	
  2844                           	movlw	0FEh
  2845  0012F8  0EFE               	andwf	((c:___xxtofl@arg+3)),c,w
  2846  0012FA  140E               	movwf	3+(??___xxtofl+0+0)&0ffh,c
  2847  0012FC  6E08               	movf	(??___xxtofl+0+0),c,w
  2848  0012FE  5005               iorwf	(??___xxtofl+0+1),c,w
  2849  001300  1006               iorwf	(??___xxtofl+0+2),c,w
  2850  001302  1007               iorwf	(??___xxtofl+0+3),c,w
  2851  001304  1008               	btfss	status,2
  2852  001306  A4D8               	goto	u1911
  2853  001308  EF88  F009         	goto	u1910
  2854  00130C  EF8A  F009         
  2855                           u1911:
  2856  001310                     	goto	l2043
  2857  001310  EF6B  F009         u1910:
  2858  001314                     	goto	l840
  2859  001314  EF9A  F009         	
  2860                           l839:
  2861  001318                     	line	28
  2862                           	goto	l840
  2863  001318  EF9A  F009         	
  2864                           l841:
  2865  00131C                     	line	29
  2866                           	
  2867                           l2047:
  2868  00131C                     	incf	((c:___xxtofl@exp)),c
  2869  00131C  2A0A               	line	30
  2870                           	
  2871                           l2049:
  2872  00131E                     	movlw	low(01h)
  2873  00131E  0E01               	addwf	((c:___xxtofl@arg)),c
  2874  001320  260B               	movlw	0
  2875  001322  0E00               	addwfc	((c:___xxtofl@arg+1)),c
  2876  001324  220C               	addwfc	((c:___xxtofl@arg+2)),c
  2877  001326  220D               	addwfc	((c:___xxtofl@arg+3)),c
  2878  001328  220E               	line	31
  2879                           	
  2880                           l2051:
  2881  00132A                     	bcf	status,0
  2882  00132A  90D8               	rrcf	((c:___xxtofl@arg+3)),c
  2883  00132C  320E               	rrcf	((c:___xxtofl@arg+2)),c
  2884  00132E  320D               	rrcf	((c:___xxtofl@arg+1)),c
  2885  001330  320C               	rrcf	((c:___xxtofl@arg)),c
  2886  001332  320B               	line	32
  2887                           	
  2888                           l840:
  2889  001334                     	line	28
  2890                           	movlw	0
  2891  001334  0E00               	andwf	((c:___xxtofl@arg)),c,w
  2892  001336  140B               	movwf	(??___xxtofl+0+0)&0ffh,c
  2893  001338  6E05               	movlw	0
  2894  00133A  0E00               	andwf	((c:___xxtofl@arg+1)),c,w
  2895  00133C  140C               	movwf	1+(??___xxtofl+0+0)&0ffh,c
  2896  00133E  6E06               	
  2897                           	movlw	0
  2898  001340  0E00               	andwf	((c:___xxtofl@arg+2)),c,w
  2899  001342  140D               	movwf	2+(??___xxtofl+0+0)&0ffh,c
  2900  001344  6E07               	
  2901                           	movlw	0FFh
  2902  001346  0EFF               	andwf	((c:___xxtofl@arg+3)),c,w
  2903  001348  140E               	movwf	3+(??___xxtofl+0+0)&0ffh,c
  2904  00134A  6E08               	movf	(??___xxtofl+0+0),c,w
  2905  00134C  5005               iorwf	(??___xxtofl+0+1),c,w
  2906  00134E  1006               iorwf	(??___xxtofl+0+2),c,w
  2907  001350  1007               iorwf	(??___xxtofl+0+3),c,w
  2908  001352  1008               	btfss	status,2
  2909  001354  A4D8               	goto	u1921
  2910  001356  EFAF  F009         	goto	u1920
  2911  00135A  EFB1  F009         
  2912                           u1921:
  2913  00135E                     	goto	l2047
  2914  00135E  EF8E  F009         u1920:
  2915  001362                     	goto	l2055
  2916  001362  EFBD  F009         	
  2917                           l842:
  2918  001366                     	line	33
  2919                           	goto	l2055
  2920  001366  EFBD  F009         	
  2921                           l844:
  2922  00136A                     	line	34
  2923                           	
  2924                           l2053:
  2925  00136A                     	decf	((c:___xxtofl@exp)),c
  2926  00136A  060A               	line	35
  2927                           	bcf	status,0
  2928  00136C  90D8               	rlcf	((c:___xxtofl@arg)),c
  2929  00136E  360B               	rlcf	((c:___xxtofl@arg+1)),c
  2930  001370  360C               	rlcf	((c:___xxtofl@arg+2)),c
  2931  001372  360D               	rlcf	((c:___xxtofl@arg+3)),c
  2932  001374  360E               	goto	l2055
  2933  001376  EFBD  F009         	line	36
  2934                           	
  2935                           l843:
  2936  00137A                     	line	33
  2937                           	
  2938                           l2055:
  2939  00137A                     	
  2940                           	btfsc	((c:___xxtofl@arg+2)),c,(23)&7
  2941  00137A  BE0D               	goto	u1931
  2942  00137C  EFC2  F009         	goto	u1930
  2943  001380  EFC4  F009         u1931:
  2944  001384                     	goto	l847
  2945  001384  EFCE  F009         u1930:
  2946  001388                     	
  2947                           l2057:
  2948  001388                     		movlw	02h-0
  2949  001388  0E02               	cpfslt	((c:___xxtofl@exp)),c
  2950  00138A  600A               	goto	u1941
  2951  00138C  EFCA  F009         	goto	u1940
  2952  001390  EFCC  F009         
  2953                           u1941:
  2954  001394                     	goto	l2053
  2955  001394  EFB5  F009         u1940:
  2956  001398                     	goto	l847
  2957  001398  EFCE  F009         	
  2958                           l846:
  2959  00139C                     	
  2960                           l847:
  2961  00139C                     	line	37
  2962                           	
  2963                           	btfsc	((c:___xxtofl@exp)),c,(0)&7
  2964  00139C  B00A               	goto	u1951
  2965  00139E  EFD3  F009         	goto	u1950
  2966  0013A2  EFD5  F009         u1951:
  2967  0013A6                     	goto	l2061
  2968  0013A6  EFD8  F009         u1950:
  2969  0013AA                     	line	38
  2970                           	
  2971                           l2059:
  2972  0013AA                     	bcf	(0+(23/8)+(c:___xxtofl@arg)),c,(23)&7
  2973  0013AA  9E0D               	goto	l2061
  2974  0013AC  EFD8  F009         	
  2975                           l848:
  2976  0013B0                     	line	39
  2977                           	
  2978                           l2061:
  2979  0013B0                     	bcf status,0
  2980  0013B0  90D8               	rrcf	((c:___xxtofl@exp)),c
  2981  0013B2  320A               
  2982                           	line	40
  2983                           	
  2984                           l2063:
  2985  0013B4                     	movff	(c:___xxtofl@exp),??___xxtofl+0+0
  2986  0013B4  C00A  F005         	clrf	(??___xxtofl+0+0+1)&0ffh,c
  2987  0013B8  6A06               	clrf	(??___xxtofl+0+0+2)&0ffh,c
  2988  0013BA  6A07               	clrf	(??___xxtofl+0+0+3)&0ffh,c
  2989  0013BC  6A08               	movff	??___xxtofl+0+0,??___xxtofl+0+3
  2990  0013BE  C005  F008         	clrf	(??___xxtofl+0+2),c
  2991  0013C2  6A07               	clrf	(??___xxtofl+0+1),c
  2992  0013C4  6A06               	clrf	(??___xxtofl+0+0),c
  2993  0013C6  6A05               	movf	(??___xxtofl+0+0),c,w
  2994  0013C8  5005               	iorwf	((c:___xxtofl@arg)),c
  2995  0013CA  120B               	movf	(??___xxtofl+0+1),c,w
  2996  0013CC  5006               	iorwf	((c:___xxtofl@arg+1)),c
  2997  0013CE  120C               	movf	(??___xxtofl+0+2),c,w
  2998  0013D0  5007               	iorwf	((c:___xxtofl@arg+2)),c
  2999  0013D2  120D               	movf	(??___xxtofl+0+3),c,w
  3000  0013D4  5008               	iorwf	((c:___xxtofl@arg+3)),c
  3001  0013D6  120E               
  3002                           	line	41
  3003                           	
  3004                           l2065:
  3005  0013D8                     	movf	((c:___xxtofl@sign)),c,w
  3006  0013D8  5009               	btfsc	status,2
  3007  0013DA  B4D8               	goto	u1961
  3008  0013DC  EFF2  F009         	goto	u1960
  3009  0013E0  EFF4  F009         u1961:
  3010  0013E4                     	goto	l2071
  3011  0013E4  EFFE  F009         u1960:
  3012  0013E8                     	
  3013                           l2067:
  3014  0013E8                     	btfsc	((c:___xxtofl@val+3)),c,7
  3015  0013E8  BE04               	goto	u1970
  3016  0013EA  EFFB  F009         	goto	u1971
  3017  0013EE  EFF9  F009         
  3018                           u1971:
  3019  0013F2                     	goto	l2071
  3020  0013F2  EFFE  F009         u1970:
  3021  0013F6                     	line	42
  3022                           	
  3023                           l2069:
  3024  0013F6                     	bsf	(0+(31/8)+(c:___xxtofl@arg)),c,(31)&7
  3025  0013F6  8E0E               	goto	l2071
  3026  0013F8  EFFE  F009         	
  3027                           l849:
  3028  0013FC                     	line	43
  3029                           	
  3030                           l2071:
  3031  0013FC                     	movff	(c:___xxtofl@arg),(c:?___xxtofl)
  3032  0013FC  C00B  F001         	movff	(c:___xxtofl@arg+1),(c:?___xxtofl+1)
  3033  001400  C00C  F002         	movff	(c:___xxtofl@arg+2),(c:?___xxtofl+2)
  3034  001404  C00D  F003         	movff	(c:___xxtofl@arg+3),(c:?___xxtofl+3)
  3035  001408  C00E  F004         	goto	l836
  3036  00140C  EF08  F00A         	
  3037                           l2073:
  3038  001410                     	line	44
  3039                           	
  3040                           l836:
  3041  001410                     	return	;funcret
  3042  001410  0012               	opt stack 0
  3043                           GLOBAL	__end_of___xxtofl
  3044                           	__end_of___xxtofl:
  3045  001412                     	signat	___xxtofl,8316
  3046                           	global	___fltol
  3047                           
  3048 ;; *************** function ___fltol *****************
  3049 ;; Defined at:
  3050 ;;		line 43 in file "/Applications/microchip/xc8/v2.00/pic/sources/c99/common/fltol.c"
  3051 ;; Parameters:    Size  Location     Type
  3052 ;;  f1              4    0[COMRAM] unsigned char 
  3053 ;; Auto vars:     Size  Location     Type
  3054 ;;  exp1            1    9[COMRAM] unsigned char 
  3055 ;;  sign1           1    8[COMRAM] unsigned char 
  3056 ;; Return value:  Size  Location     Type
  3057 ;;                  4    0[COMRAM] long 
  3058 ;; Registers used:
  3059 ;;		wreg, status,2, status,0
  3060 ;; Tracked objects:
  3061 ;;		On entry : 0/0
  3062 ;;		On exit  : 0/0
  3063 ;;		Unchanged: 0/0
  3064 ;; Data sizes:     COMRAM   BANK0   BANK1   BANK2   BANK3   BANK4   BANK5   BANK6   BANK7
  3065 ;;      Params:         4       0       0       0       0       0       0       0       0
  3066 ;;      Locals:         2       0       0       0       0       0       0       0       0
  3067 ;;      Temps:          4       0       0       0       0       0       0       0       0
  3068 ;;      Totals:        10       0       0       0       0       0       0       0       0
  3069 ;;Total ram usage:       10 bytes
  3070 ;; Hardware stack levels used:    1
  3071 ;; This function calls:
  3072 ;;		Nothing
  3073 ;; This function is called by:
  3074 ;;		_USART_Init
  3075 ;; This function uses a non-reentrant model
  3076 ;;
  3077                           psect	text7,class=CODE,space=0,reloc=2,group=1
  3078                           	file	"/Applications/microchip/xc8/v2.00/pic/sources/c99/common/fltol.c"
  3079                           	line	43
  3080                           global __ptext7
  3081                           __ptext7:
  3082  001712                     psect	text7
  3083                           	file	"/Applications/microchip/xc8/v2.00/pic/sources/c99/common/fltol.c"
  3084                           	line	43
  3085                           	global	__size_of___fltol
  3086                           	__size_of___fltol	equ	__end_of___fltol-___fltol
  3087  0000                     	
  3088                           ___fltol:
  3089  001712                     ;incstack = 0
  3090                           	opt	stack 29
  3091                           	line	47
  3092                           	
  3093                           l1985:
  3094  001712                     	rlcf	((c:___fltol@f1+2)),c,w
  3095  001712  3403               	rlcf	((c:___fltol@f1+3)),c,w
  3096  001714  3404               	movwf	((c:___fltol@exp1)),c
  3097  001716  6E0A               	movf	((c:___fltol@exp1)),c,w
  3098  001718  500A               	btfss	status,2
  3099  00171A  A4D8               	goto	u1811
  3100  00171C  EF92  F00B         	goto	u1810
  3101  001720  EF94  F00B         u1811:
  3102  001724                     	goto	l1991
  3103  001724  EFA0  F00B         u1810:
  3104  001728                     	line	48
  3105                           	
  3106                           l1987:
  3107  001728                     	movlw	low(0)
  3108  001728  0E00               	movwf	((c:?___fltol)),c
  3109  00172A  6E01               	movlw	high(0)
  3110  00172C  0E00               	movwf	((c:?___fltol+1)),c
  3111  00172E  6E02               	movlw	low highword(0)
  3112  001730  0E00               	movwf	((c:?___fltol+2)),c
  3113  001732  6E03               	movlw	high highword(0)
  3114  001734  0E00               	movwf	((c:?___fltol+3)),c
  3115  001736  6E04               	goto	l475
  3116  001738  EF31  F00C         	
  3117                           l1989:
  3118  00173C                     	goto	l475
  3119  00173C  EF31  F00C         	
  3120                           l474:
  3121  001740                     	line	49
  3122                           	
  3123                           l1991:
  3124  001740                     	movff	(c:___fltol@f1),??___fltol+0+0
  3125  001740  C001  F005         	movff	(c:___fltol@f1+1),??___fltol+0+0+1
  3126  001744  C002  F006         	movff	(c:___fltol@f1+2),??___fltol+0+0+2
  3127  001748  C003  F007         	movff	(c:___fltol@f1+3),??___fltol+0+0+3
  3128  00174C  C004  F008         	movlw	01Fh+1
  3129  001750  0E20               	goto	u1820
  3130  001752  EFB0  F00B         u1825:
  3131  001756                     	bcf	status,0
  3132  001756  90D8               	rrcf	(??___fltol+0+3),c
  3133  001758  3208               	rrcf	(??___fltol+0+2),c
  3134  00175A  3207               	rrcf	(??___fltol+0+1),c
  3135  00175C  3206               	rrcf	(??___fltol+0+0),c
  3136  00175E  3205               u1820:
  3137  001760                     	decfsz	wreg
  3138  001760  2EE8               	goto	u1825
  3139  001762  EFAB  F00B         	movf	(??___fltol+0+0),c,w
  3140  001766  5005               	movwf	((c:___fltol@sign1)),c
  3141  001768  6E09               	line	50
  3142                           	
  3143                           l1993:
  3144  00176A                     	bsf	(0+(23/8)+(c:___fltol@f1)),c,(23)&7
  3145  00176A  8E03               	line	51
  3146                           	
  3147                           l1995:
  3148  00176C                     	movlw	0FFh
  3149  00176C  0EFF               	andwf	((c:___fltol@f1)),c
  3150  00176E  1601               	movlw	0FFh
  3151  001770  0EFF               	andwf	((c:___fltol@f1+1)),c
  3152  001772  1602               	movlw	0FFh
  3153  001774  0EFF               	andwf	((c:___fltol@f1+2)),c
  3154  001776  1603               	movlw	0
  3155  001778  0E00               	andwf	((c:___fltol@f1+3)),c
  3156  00177A  1604               	line	52
  3157                           	
  3158                           l1997:
  3159  00177C                     	movlw	(096h)&0ffh
  3160  00177C  0E96               	subwf	((c:___fltol@exp1)),c
  3161  00177E  5E0A               	line	53
  3162                           	
  3163                           l1999:
  3164  001780                     	btfsc	((c:___fltol@exp1)),c,7
  3165  001780  BE0A               	goto	u1830
  3166  001782  EFC7  F00B         	goto	u1831
  3167  001786  EFC5  F00B         
  3168                           u1831:
  3169  00178A                     	goto	l2011
  3170  00178A  EFEB  F00B         u1830:
  3171  00178E                     	line	54
  3172                           	
  3173                           l2001:
  3174  00178E                     		movf	((c:___fltol@exp1)),c,w
  3175  00178E  500A               	xorlw	80h
  3176  001790  0A80               	addlw	-(80h^-23)
  3177  001792  0F97               	btfsc	status,0
  3178  001794  B0D8               	goto	u1841
  3179  001796  EFCF  F00B         	goto	u1840
  3180  00179A  EFD1  F00B         
  3181                           u1841:
  3182  00179E                     	goto	l2007
  3183  00179E  EFDF  F00B         u1840:
  3184  0017A2                     	line	55
  3185                           	
  3186                           l2003:
  3187  0017A2                     	movlw	low(0)
  3188  0017A2  0E00               	movwf	((c:?___fltol)),c
  3189  0017A4  6E01               	movlw	high(0)
  3190  0017A6  0E00               	movwf	((c:?___fltol+1)),c
  3191  0017A8  6E02               	movlw	low highword(0)
  3192  0017AA  0E00               	movwf	((c:?___fltol+2)),c
  3193  0017AC  6E03               	movlw	high highword(0)
  3194  0017AE  0E00               	movwf	((c:?___fltol+3)),c
  3195  0017B0  6E04               	goto	l475
  3196  0017B2  EF31  F00C         	
  3197                           l2005:
  3198  0017B6                     	goto	l475
  3199  0017B6  EF31  F00C         	
  3200                           l477:
  3201  0017BA                     	goto	l2007
  3202  0017BA  EFDF  F00B         	line	56
  3203                           	
  3204                           l478:
  3205  0017BE                     	line	57
  3206                           	
  3207                           l2007:
  3208  0017BE                     	bcf	status,0
  3209  0017BE  90D8               	rrcf	((c:___fltol@f1+3)),c
  3210  0017C0  3204               	rrcf	((c:___fltol@f1+2)),c
  3211  0017C2  3203               	rrcf	((c:___fltol@f1+1)),c
  3212  0017C4  3202               	rrcf	((c:___fltol@f1)),c
  3213  0017C6  3201               	
  3214                           l2009:
  3215  0017C8                     	incfsz	((c:___fltol@exp1)),c
  3216  0017C8  3E0A               	
  3217                           	goto	l2007
  3218  0017CA  EFDF  F00B         	goto	l2021
  3219  0017CE  EF15  F00C         	
  3220                           l479:
  3221  0017D2                     	line	59
  3222                           	goto	l2021
  3223  0017D2  EF15  F00C         	
  3224                           l476:
  3225  0017D6                     	line	60
  3226                           	
  3227                           l2011:
  3228  0017D6                     		movlw	020h-1
  3229  0017D6  0E1F               	cpfsgt	((c:___fltol@exp1)),c
  3230  0017D8  640A               	goto	u1851
  3231  0017DA  EFF1  F00B         	goto	u1850
  3232  0017DE  EFF3  F00B         
  3233                           u1851:
  3234  0017E2                     	goto	l2019
  3235  0017E2  EF09  F00C         u1850:
  3236  0017E6                     	line	61
  3237                           	
  3238                           l2013:
  3239  0017E6                     	movlw	low(0)
  3240  0017E6  0E00               	movwf	((c:?___fltol)),c
  3241  0017E8  6E01               	movlw	high(0)
  3242  0017EA  0E00               	movwf	((c:?___fltol+1)),c
  3243  0017EC  6E02               	movlw	low highword(0)
  3244  0017EE  0E00               	movwf	((c:?___fltol+2)),c
  3245  0017F0  6E03               	movlw	high highword(0)
  3246  0017F2  0E00               	movwf	((c:?___fltol+3)),c
  3247  0017F4  6E04               	goto	l475
  3248  0017F6  EF31  F00C         	
  3249                           l2015:
  3250  0017FA                     	goto	l475
  3251  0017FA  EF31  F00C         	
  3252                           l481:
  3253  0017FE                     	line	62
  3254                           	goto	l2019
  3255  0017FE  EF09  F00C         	
  3256                           l483:
  3257  001802                     	line	63
  3258                           	
  3259                           l2017:
  3260  001802                     	bcf	status,0
  3261  001802  90D8               	rlcf	((c:___fltol@f1)),c
  3262  001804  3601               	rlcf	((c:___fltol@f1+1)),c
  3263  001806  3602               	rlcf	((c:___fltol@f1+2)),c
  3264  001808  3603               	rlcf	((c:___fltol@f1+3)),c
  3265  00180A  3604               	line	64
  3266                           	decf	((c:___fltol@exp1)),c
  3267  00180C  060A               	goto	l2019
  3268  00180E  EF09  F00C         	line	65
  3269                           	
  3270                           l482:
  3271  001812                     	line	62
  3272                           	
  3273                           l2019:
  3274  001812                     	movf	((c:___fltol@exp1)),c,w
  3275  001812  500A               	btfss	status,2
  3276  001814  A4D8               	goto	u1861
  3277  001816  EF0F  F00C         	goto	u1860
  3278  00181A  EF11  F00C         u1861:
  3279  00181E                     	goto	l2017
  3280  00181E  EF01  F00C         u1860:
  3281  001822                     	goto	l2021
  3282  001822  EF15  F00C         	
  3283                           l484:
  3284  001826                     	goto	l2021
  3285  001826  EF15  F00C         	line	66
  3286                           	
  3287                           l480:
  3288  00182A                     	line	67
  3289                           	
  3290                           l2021:
  3291  00182A                     	movf	((c:___fltol@sign1)),c,w
  3292  00182A  5009               	btfsc	status,2
  3293  00182C  B4D8               	goto	u1871
  3294  00182E  EF1B  F00C         	goto	u1870
  3295  001832  EF1D  F00C         u1871:
  3296  001836                     	goto	l2025
  3297  001836  EF27  F00C         u1870:
  3298  00183A                     	line	68
  3299                           	
  3300                           l2023:
  3301  00183A                     	comf	((c:___fltol@f1+3)),c
  3302  00183A  1E04               	comf	((c:___fltol@f1+2)),c
  3303  00183C  1E03               	comf	((c:___fltol@f1+1)),c
  3304  00183E  1E02               	negf	((c:___fltol@f1)),c
  3305  001840  6C01               	movlw	0
  3306  001842  0E00               	addwfc	((c:___fltol@f1+1)),c
  3307  001844  2202               	addwfc	((c:___fltol@f1+2)),c
  3308  001846  2203               	addwfc	((c:___fltol@f1+3)),c
  3309  001848  2204               	goto	l2025
  3310  00184A  EF27  F00C         	
  3311                           l485:
  3312  00184E                     	line	69
  3313                           	
  3314                           l2025:
  3315  00184E                     	movff	(c:___fltol@f1),(c:?___fltol)
  3316  00184E  C001  F001         	movff	(c:___fltol@f1+1),(c:?___fltol+1)
  3317  001852  C002  F002         	movff	(c:___fltol@f1+2),(c:?___fltol+2)
  3318  001856  C003  F003         	movff	(c:___fltol@f1+3),(c:?___fltol+3)
  3319  00185A  C004  F004         	goto	l475
  3320  00185E  EF31  F00C         	
  3321                           l2027:
  3322  001862                     	line	70
  3323                           	
  3324                           l475:
  3325  001862                     	return	;funcret
  3326  001862  0012               	opt stack 0
  3327                           GLOBAL	__end_of___fltol
  3328                           	__end_of___fltol:
  3329  001864                     	signat	___fltol,4220
  3330                           	global	___fldiv
  3331                           
  3332 ;; *************** function ___fldiv *****************
  3333 ;; Defined at:
  3334 ;;		line 11 in file "/Applications/microchip/xc8/v2.00/pic/sources/c99/common/sprcdiv.c"
  3335 ;; Parameters:    Size  Location     Type
  3336 ;;  b               4   14[COMRAM] long 
  3337 ;;  a               4   18[COMRAM] long 
  3338 ;; Auto vars:     Size  Location     Type
  3339 ;;  grs             4   33[COMRAM] unsigned long 
  3340 ;;  rem             4   26[COMRAM] unsigned long 
  3341 ;;  new_exp         2   31[COMRAM] short 
  3342 ;;  aexp            1   38[COMRAM] unsigned char 
  3343 ;;  bexp            1   37[COMRAM] unsigned char 
  3344 ;;  sign            1   30[COMRAM] unsigned char 
  3345 ;; Return value:  Size  Location     Type
  3346 ;;                  4   14[COMRAM] unsigned char 
  3347 ;; Registers used:
  3348 ;;		wreg, status,2, status,0
  3349 ;; Tracked objects:
  3350 ;;		On entry : 0/0
  3351 ;;		On exit  : 0/0
  3352 ;;		Unchanged: 0/0
  3353 ;; Data sizes:     COMRAM   BANK0   BANK1   BANK2   BANK3   BANK4   BANK5   BANK6   BANK7
  3354 ;;      Params:         8       0       0       0       0       0       0       0       0
  3355 ;;      Locals:        13       0       0       0       0       0       0       0       0
  3356 ;;      Temps:          4       0       0       0       0       0       0       0       0
  3357 ;;      Totals:        25       0       0       0       0       0       0       0       0
  3358 ;;Total ram usage:       25 bytes
  3359 ;; Hardware stack levels used:    1
  3360 ;; This function calls:
  3361 ;;		Nothing
  3362 ;; This function is called by:
  3363 ;;		_USART_Init
  3364 ;; This function uses a non-reentrant model
  3365 ;;
  3366                           psect	text8,class=CODE,space=0,reloc=2,group=1
  3367                           	file	"/Applications/microchip/xc8/v2.00/pic/sources/c99/common/sprcdiv.c"
  3368                           	line	11
  3369                           global __ptext8
  3370                           __ptext8:
  3371  000E16                     psect	text8
  3372                           	file	"/Applications/microchip/xc8/v2.00/pic/sources/c99/common/sprcdiv.c"
  3373                           	line	11
  3374                           	global	__size_of___fldiv
  3375                           	__size_of___fldiv	equ	__end_of___fldiv-___fldiv
  3376  0000                     	
  3377                           ___fldiv:
  3378  000E16                     ;incstack = 0
  3379                           	opt	stack 29
  3380                           	line	26
  3381                           	
  3382                           l1847:
  3383  000E16                     	movf	(0+((c:___fldiv@b)+03h)),c,w
  3384  000E16  5012               	andlw	low(080h)
  3385  000E18  0B80               	movwf	((c:___fldiv@sign)),c
  3386  000E1A  6E1F               	line	27
  3387                           	movf	(0+((c:___fldiv@b)+03h)),c,w
  3388  000E1C  5012               	addwf	(0+((c:___fldiv@b)+03h)),c,w
  3389  000E1E  2412               	movwf	((c:___fldiv@bexp)),c
  3390  000E20  6E26               	line	28
  3391                           	
  3392                           l1849:
  3393  000E22                     	
  3394                           	btfss	(0+((c:___fldiv@b)+02h)),c,(7)&7
  3395  000E22  AE11               	goto	u1581
  3396  000E24  EF16  F007         	goto	u1580
  3397  000E28  EF18  F007         u1581:
  3398  000E2C                     	goto	l1853
  3399  000E2C  EF1B  F007         u1580:
  3400  000E30                     	line	29
  3401                           	
  3402                           l1851:
  3403  000E30                     	bsf	(0+(0/8)+(c:___fldiv@bexp)),c,(0)&7
  3404  000E30  8026               	goto	l1853
  3405  000E32  EF1B  F007         	line	30
  3406                           	
  3407                           l751:
  3408  000E36                     	line	33
  3409                           	
  3410                           l1853:
  3411  000E36                     	movf	((c:___fldiv@bexp)),c,w
  3412  000E36  5026               	btfsc	status,2
  3413  000E38  B4D8               	goto	u1591
  3414  000E3A  EF21  F007         	goto	u1590
  3415  000E3E  EF23  F007         u1591:
  3416  000E42                     	goto	l1863
  3417  000E42  EF3A  F007         u1590:
  3418  000E46                     	line	35
  3419                           	
  3420                           l1855:
  3421  000E46                     		incf	((c:___fldiv@bexp)),c,w
  3422  000E46  2826               	btfss	status,2
  3423  000E48  A4D8               	goto	u1601
  3424  000E4A  EF29  F007         	goto	u1600
  3425  000E4E  EF2B  F007         
  3426                           u1601:
  3427  000E52                     	goto	l1859
  3428  000E52  EF35  F007         u1600:
  3429  000E56                     	line	37
  3430                           	
  3431                           l1857:
  3432  000E56                     	movlw	low(normalize32(0x0))
  3433  000E56  0E00               	movwf	((c:___fldiv@b)),c
  3434  000E58  6E0F               	movlw	high(normalize32(0x0))
  3435  000E5A  0E00               	movwf	((c:___fldiv@b+1)),c
  3436  000E5C  6E10               	movlw	low highword(normalize32(0x0))
  3437  000E5E  0E00               	movwf	((c:___fldiv@b+2)),c
  3438  000E60  6E11               	movlw	high highword(normalize32(0x0))
  3439  000E62  0E00               	movwf	((c:___fldiv@b+3)),c
  3440  000E64  6E12               	goto	l1859
  3441  000E66  EF35  F007         	line	38
  3442                           	
  3443                           l753:
  3444  000E6A                     	line	40
  3445                           	
  3446                           l1859:
  3447  000E6A                     	bsf	(0+(23/8)+(c:___fldiv@b)),c,(23)&7
  3448  000E6A  8E11               	line	42
  3449                           	
  3450                           l1861:
  3451  000E6C                     	movlw	low(0)
  3452  000E6C  0E00               	movwf	(0+((c:___fldiv@b)+03h)),c
  3453  000E6E  6E12               	line	43
  3454                           	goto	l1865
  3455  000E70  EF44  F007         	line	44
  3456                           	
  3457                           l752:
  3458  000E74                     	line	46
  3459                           	
  3460                           l1863:
  3461  000E74                     	movlw	low(normalize32(0x0))
  3462  000E74  0E00               	movwf	((c:___fldiv@b)),c
  3463  000E76  6E0F               	movlw	high(normalize32(0x0))
  3464  000E78  0E00               	movwf	((c:___fldiv@b+1)),c
  3465  000E7A  6E10               	movlw	low highword(normalize32(0x0))
  3466  000E7C  0E00               	movwf	((c:___fldiv@b+2)),c
  3467  000E7E  6E11               	movlw	high highword(normalize32(0x0))
  3468  000E80  0E00               	movwf	((c:___fldiv@b+3)),c
  3469  000E82  6E12               	goto	l1865
  3470  000E84  EF44  F007         	line	47
  3471                           	
  3472                           l754:
  3473  000E88                     	line	49
  3474                           	
  3475                           l1865:
  3476  000E88                     	movf	(0+((c:___fldiv@a)+03h)),c,w
  3477  000E88  5016               	andlw	low(080h)
  3478  000E8A  0B80               	xorwf	((c:___fldiv@sign)),c
  3479  000E8C  1A1F               	line	50
  3480                           	
  3481                           l1867:
  3482  000E8E                     	movf	(0+((c:___fldiv@a)+03h)),c,w
  3483  000E8E  5016               	addwf	(0+((c:___fldiv@a)+03h)),c,w
  3484  000E90  2416               	movwf	((c:___fldiv@aexp)),c
  3485  000E92  6E27               	line	51
  3486                           	
  3487                           l1869:
  3488  000E94                     	
  3489                           	btfss	(0+((c:___fldiv@a)+02h)),c,(7)&7
  3490  000E94  AE15               	goto	u1611
  3491  000E96  EF4F  F007         	goto	u1610
  3492  000E9A  EF51  F007         u1611:
  3493  000E9E                     	goto	l1873
  3494  000E9E  EF54  F007         u1610:
  3495  000EA2                     	line	52
  3496                           	
  3497                           l1871:
  3498  000EA2                     	bsf	(0+(0/8)+(c:___fldiv@aexp)),c,(0)&7
  3499  000EA2  8027               	goto	l1873
  3500  000EA4  EF54  F007         	line	53
  3501                           	
  3502                           l755:
  3503  000EA8                     	line	56
  3504                           	
  3505                           l1873:
  3506  000EA8                     	movf	((c:___fldiv@aexp)),c,w
  3507  000EA8  5027               	btfsc	status,2
  3508  000EAA  B4D8               	goto	u1621
  3509  000EAC  EF5A  F007         	goto	u1620
  3510  000EB0  EF5C  F007         u1621:
  3511  000EB4                     	goto	l1883
  3512  000EB4  EF73  F007         u1620:
  3513  000EB8                     	line	58
  3514                           	
  3515                           l1875:
  3516  000EB8                     		incf	((c:___fldiv@aexp)),c,w
  3517  000EB8  2827               	btfss	status,2
  3518  000EBA  A4D8               	goto	u1631
  3519  000EBC  EF62  F007         	goto	u1630
  3520  000EC0  EF64  F007         
  3521                           u1631:
  3522  000EC4                     	goto	l1879
  3523  000EC4  EF6E  F007         u1630:
  3524  000EC8                     	line	60
  3525                           	
  3526                           l1877:
  3527  000EC8                     	movlw	low(normalize32(0x0))
  3528  000EC8  0E00               	movwf	((c:___fldiv@a)),c
  3529  000ECA  6E13               	movlw	high(normalize32(0x0))
  3530  000ECC  0E00               	movwf	((c:___fldiv@a+1)),c
  3531  000ECE  6E14               	movlw	low highword(normalize32(0x0))
  3532  000ED0  0E00               	movwf	((c:___fldiv@a+2)),c
  3533  000ED2  6E15               	movlw	high highword(normalize32(0x0))
  3534  000ED4  0E00               	movwf	((c:___fldiv@a+3)),c
  3535  000ED6  6E16               	goto	l1879
  3536  000ED8  EF6E  F007         	line	61
  3537                           	
  3538                           l757:
  3539  000EDC                     	line	63
  3540                           	
  3541                           l1879:
  3542  000EDC                     	bsf	(0+(23/8)+(c:___fldiv@a)),c,(23)&7
  3543  000EDC  8E15               	line	65
  3544                           	
  3545                           l1881:
  3546  000EDE                     	movlw	low(0)
  3547  000EDE  0E00               	movwf	(0+((c:___fldiv@a)+03h)),c
  3548  000EE0  6E16               	line	66
  3549                           	goto	l1885
  3550  000EE2  EF7D  F007         	line	67
  3551                           	
  3552                           l756:
  3553  000EE6                     	line	69
  3554                           	
  3555                           l1883:
  3556  000EE6                     	movlw	low(normalize32(0x0))
  3557  000EE6  0E00               	movwf	((c:___fldiv@a)),c
  3558  000EE8  6E13               	movlw	high(normalize32(0x0))
  3559  000EEA  0E00               	movwf	((c:___fldiv@a+1)),c
  3560  000EEC  6E14               	movlw	low highword(normalize32(0x0))
  3561  000EEE  0E00               	movwf	((c:___fldiv@a+2)),c
  3562  000EF0  6E15               	movlw	high highword(normalize32(0x0))
  3563  000EF2  0E00               	movwf	((c:___fldiv@a+3)),c
  3564  000EF4  6E16               	goto	l1885
  3565  000EF6  EF7D  F007         	line	70
  3566                           	
  3567                           l758:
  3568  000EFA                     	line	75
  3569                           	
  3570                           l1885:
  3571  000EFA                     	movf	((c:___fldiv@a)),c,w
  3572  000EFA  5013               iorwf	((c:___fldiv@a+1)),c,w
  3573  000EFC  1014               iorwf	((c:___fldiv@a+2)),c,w
  3574  000EFE  1015               iorwf	((c:___fldiv@a+3)),c,w
  3575  000F00  1016               	btfss	status,2
  3576  000F02  A4D8               	goto	u1641
  3577  000F04  EF86  F007         	goto	u1640
  3578  000F08  EF88  F007         
  3579                           u1641:
  3580  000F0C                     	goto	l1897
  3581  000F0C  EFA2  F007         u1640:
  3582  000F10                     	line	76
  3583                           	
  3584                           l1887:
  3585  000F10                     	movlw	low(0)
  3586  000F10  0E00               	movwf	((c:___fldiv@b)),c
  3587  000F12  6E0F               	movlw	high(0)
  3588  000F14  0E00               	movwf	((c:___fldiv@b+1)),c
  3589  000F16  6E10               	movlw	low highword(0)
  3590  000F18  0E00               	movwf	((c:___fldiv@b+2)),c
  3591  000F1A  6E11               	movlw	high highword(0)
  3592  000F1C  0E00               	movwf	((c:___fldiv@b+3)),c
  3593  000F1E  6E12               	line	77
  3594                           	
  3595                           l1889:
  3596  000F20                     	movlw	low(07F80h)
  3597  000F20  0E80               	iorwf	(0+((c:___fldiv@b)+02h)),c
  3598  000F22  1211               	movlw	high(07F80h)
  3599  000F24  0E7F               	iorwf	(1+((c:___fldiv@b)+02h)),c
  3600  000F26  1212               	line	78
  3601                           	
  3602                           l1891:
  3603  000F28                     	movf	((c:___fldiv@sign)),c,w
  3604  000F28  501F               	iorwf	(0+((c:___fldiv@b)+03h)),c
  3605  000F2A  1212               	line	79
  3606                           	
  3607                           l1893:
  3608  000F2C                     	movff	(c:___fldiv@b),(c:?___fldiv)
  3609  000F2C  C00F  F00F         	movff	(c:___fldiv@b+1),(c:?___fldiv+1)
  3610  000F30  C010  F010         	movff	(c:___fldiv@b+2),(c:?___fldiv+2)
  3611  000F34  C011  F011         	movff	(c:___fldiv@b+3),(c:?___fldiv+3)
  3612  000F38  C012  F012         	goto	l760
  3613  000F3C  EF1A  F009         	
  3614                           l1895:
  3615  000F40                     	goto	l760
  3616  000F40  EF1A  F009         	line	80
  3617                           	
  3618                           l759:
  3619  000F44                     	line	83
  3620                           	
  3621                           l1897:
  3622  000F44                     	movf	((c:___fldiv@bexp)),c,w
  3623  000F44  5026               	btfss	status,2
  3624  000F46  A4D8               	goto	u1651
  3625  000F48  EFA8  F007         	goto	u1650
  3626  000F4C  EFAA  F007         u1651:
  3627  000F50                     	goto	l1905
  3628  000F50  EFBE  F007         u1650:
  3629  000F54                     	line	84
  3630                           	
  3631                           l1899:
  3632  000F54                     	movlw	low(0)
  3633  000F54  0E00               	movwf	((c:___fldiv@b)),c
  3634  000F56  6E0F               	movlw	high(0)
  3635  000F58  0E00               	movwf	((c:___fldiv@b+1)),c
  3636  000F5A  6E10               	movlw	low highword(0)
  3637  000F5C  0E00               	movwf	((c:___fldiv@b+2)),c
  3638  000F5E  6E11               	movlw	high highword(0)
  3639  000F60  0E00               	movwf	((c:___fldiv@b+3)),c
  3640  000F62  6E12               	line	85
  3641                           	
  3642                           l1901:
  3643  000F64                     	movff	(c:___fldiv@b),(c:?___fldiv)
  3644  000F64  C00F  F00F         	movff	(c:___fldiv@b+1),(c:?___fldiv+1)
  3645  000F68  C010  F010         	movff	(c:___fldiv@b+2),(c:?___fldiv+2)
  3646  000F6C  C011  F011         	movff	(c:___fldiv@b+3),(c:?___fldiv+3)
  3647  000F70  C012  F012         	goto	l760
  3648  000F74  EF1A  F009         	
  3649                           l1903:
  3650  000F78                     	goto	l760
  3651  000F78  EF1A  F009         	line	86
  3652                           	
  3653                           l761:
  3654  000F7C                     	line	89
  3655                           	
  3656                           l1905:
  3657  000F7C                     	movf	((c:___fldiv@aexp)),c,w
  3658  000F7C  5027               	movwf	(??___fldiv+0+0)&0ffh,c
  3659  000F7E  6E17               	clrf	(??___fldiv+0+0+1)&0ffh,c
  3660  000F80  6A18               
  3661                           	comf	(??___fldiv+0+0),c
  3662  000F82  1E17               	comf	(??___fldiv+0+1),c
  3663  000F84  1E18               	infsnz	(??___fldiv+0+0),c
  3664  000F86  4A17               	incf	(??___fldiv+0+1),c
  3665  000F88  2A18               	movf	((c:___fldiv@bexp)),c,w
  3666  000F8A  5026               	movwf	(??___fldiv+2+0)&0ffh,c
  3667  000F8C  6E19               	clrf	(??___fldiv+2+0+1)&0ffh,c
  3668  000F8E  6A1A               
  3669                           	movf	(??___fldiv+0+0),c,w
  3670  000F90  5017               	addwf	(??___fldiv+2+0),c
  3671  000F92  2619               	movf	(??___fldiv+0+1),c,w
  3672  000F94  5018               	addwfc	(??___fldiv+2+1),c
  3673  000F96  221A               	movlw	low(07Fh)
  3674  000F98  0E7F               	addwf	(??___fldiv+2+0),c,w
  3675  000F9A  2419               	movwf	((c:___fldiv@new_exp)),c
  3676  000F9C  6E20               	movlw	high(07Fh)
  3677  000F9E  0E00               	addwfc	(??___fldiv+2+1),c,w
  3678  000FA0  201A               	movwf	1+((c:___fldiv@new_exp)),c
  3679  000FA2  6E21               	line	92
  3680                           	
  3681                           l1907:
  3682  000FA4                     	movff	(c:___fldiv@b),(c:___fldiv@rem)
  3683  000FA4  C00F  F01B         	movff	(c:___fldiv@b+1),(c:___fldiv@rem+1)
  3684  000FA8  C010  F01C         	movff	(c:___fldiv@b+2),(c:___fldiv@rem+2)
  3685  000FAC  C011  F01D         	movff	(c:___fldiv@b+3),(c:___fldiv@rem+3)
  3686  000FB0  C012  F01E         	line	93
  3687                           	
  3688                           l1909:
  3689  000FB4                     	movlw	low(0)
  3690  000FB4  0E00               	movwf	((c:___fldiv@b)),c
  3691  000FB6  6E0F               	movlw	high(0)
  3692  000FB8  0E00               	movwf	((c:___fldiv@b+1)),c
  3693  000FBA  6E10               	movlw	low highword(0)
  3694  000FBC  0E00               	movwf	((c:___fldiv@b+2)),c
  3695  000FBE  6E11               	movlw	high highword(0)
  3696  000FC0  0E00               	movwf	((c:___fldiv@b+3)),c
  3697  000FC2  6E12               	line	94
  3698                           	
  3699                           l1911:
  3700  000FC4                     	movlw	low(0)
  3701  000FC4  0E00               	movwf	((c:___fldiv@grs)),c
  3702  000FC6  6E22               	movlw	high(0)
  3703  000FC8  0E00               	movwf	((c:___fldiv@grs+1)),c
  3704  000FCA  6E23               	movlw	low highword(0)
  3705  000FCC  0E00               	movwf	((c:___fldiv@grs+2)),c
  3706  000FCE  6E24               	movlw	high highword(0)
  3707  000FD0  0E00               	movwf	((c:___fldiv@grs+3)),c
  3708  000FD2  6E25               	line	96
  3709                           	
  3710                           l1913:
  3711  000FD4                     	movlw	low(0)
  3712  000FD4  0E00               	movwf	((c:___fldiv@aexp)),c
  3713  000FD6  6E27               	line	97
  3714                           	goto	l762
  3715  000FD8  EF2A  F008         	
  3716                           l763:
  3717  000FDC                     	line	100
  3718                           	
  3719                           l1915:
  3720  000FDC                     	movf	((c:___fldiv@aexp)),c,w
  3721  000FDC  5027               	btfsc	status,2
  3722  000FDE  B4D8               	goto	u1661
  3723  000FE0  EFF4  F007         	goto	u1660
  3724  000FE4  EFF6  F007         u1661:
  3725  000FE8                     	goto	l1923
  3726  000FE8  EF0F  F008         u1660:
  3727  000FEC                     	line	101
  3728                           	
  3729                           l1917:
  3730  000FEC                     	bcf	status,0
  3731  000FEC  90D8               	rlcf	((c:___fldiv@rem)),c
  3732  000FEE  361B               	rlcf	((c:___fldiv@rem+1)),c
  3733  000FF0  361C               	rlcf	((c:___fldiv@rem+2)),c
  3734  000FF2  361D               	rlcf	((c:___fldiv@rem+3)),c
  3735  000FF4  361E               	line	102
  3736                           	bcf	status,0
  3737  000FF6  90D8               	rlcf	((c:___fldiv@b)),c
  3738  000FF8  360F               	rlcf	((c:___fldiv@b+1)),c
  3739  000FFA  3610               	rlcf	((c:___fldiv@b+2)),c
  3740  000FFC  3611               	rlcf	((c:___fldiv@b+3)),c
  3741  000FFE  3612               	line	103
  3742                           	
  3743                           l1919:
  3744  001000                     	
  3745                           	btfss	((c:___fldiv@grs+3)),c,(31)&7
  3746  001000  AE25               	goto	u1671
  3747  001002  EF05  F008         	goto	u1670
  3748  001006  EF07  F008         u1671:
  3749  00100A                     	goto	l765
  3750  00100A  EF08  F008         u1670:
  3751  00100E                     	line	104
  3752                           	
  3753                           l1921:
  3754  00100E                     	bsf	(0+(0/8)+(c:___fldiv@b)),c,(0)&7
  3755  00100E  800F               	line	105
  3756                           	
  3757                           l765:
  3758  001010                     	line	106
  3759                           	bcf	status,0
  3760  001010  90D8               	rlcf	((c:___fldiv@grs)),c
  3761  001012  3622               	rlcf	((c:___fldiv@grs+1)),c
  3762  001014  3623               	rlcf	((c:___fldiv@grs+2)),c
  3763  001016  3624               	rlcf	((c:___fldiv@grs+3)),c
  3764  001018  3625               	goto	l1923
  3765  00101A  EF0F  F008         	line	107
  3766                           	
  3767                           l764:
  3768  00101E                     	line	112
  3769                           	
  3770                           l1923:
  3771  00101E                     		movf	((c:___fldiv@a)),c,w
  3772  00101E  5013               	subwf	((c:___fldiv@rem)),c,w
  3773  001020  5C1B               	movf	((c:___fldiv@a+1)),c,w
  3774  001022  5014               	subwfb	((c:___fldiv@rem+1)),c,w
  3775  001024  581C               	movf	((c:___fldiv@a+2)),c,w
  3776  001026  5015               	subwfb	((c:___fldiv@rem+2)),c,w
  3777  001028  581D               	movf	((c:___fldiv@a+3)),c,w
  3778  00102A  5016               	subwfb	((c:___fldiv@rem+3)),c,w
  3779  00102C  581E               	btfss	status,0
  3780  00102E  A0D8               	goto	u1681
  3781  001030  EF1C  F008         	goto	u1680
  3782  001034  EF1E  F008         
  3783                           u1681:
  3784  001038                     	goto	l1929
  3785  001038  EF29  F008         u1680:
  3786  00103C                     	line	115
  3787                           	
  3788                           l1925:
  3789  00103C                     	bsf	(0+(30/8)+(c:___fldiv@grs)),c,(30)&7
  3790  00103C  8C25               	line	116
  3791                           	
  3792                           l1927:
  3793  00103E                     	movf	((c:___fldiv@a)),c,w
  3794  00103E  5013               	subwf	((c:___fldiv@rem)),c
  3795  001040  5E1B               	movf	((c:___fldiv@a+1)),c,w
  3796  001042  5014               	subwfb	((c:___fldiv@rem+1)),c
  3797  001044  5A1C               	movf	((c:___fldiv@a+2)),c,w
  3798  001046  5015               	subwfb	((c:___fldiv@rem+2)),c
  3799  001048  5A1D               	movf	((c:___fldiv@a+3)),c,w
  3800  00104A  5016               	subwfb	((c:___fldiv@rem+3)),c
  3801  00104C  5A1E               	goto	l1929
  3802  00104E  EF29  F008         	line	117
  3803                           	
  3804                           l766:
  3805  001052                     	line	118
  3806                           	
  3807                           l1929:
  3808  001052                     	incf	((c:___fldiv@aexp)),c
  3809  001052  2A27               	line	119
  3810                           	
  3811                           l762:
  3812  001054                     	line	97
  3813                           		movlw	01Ah-1
  3814  001054  0E19               	cpfsgt	((c:___fldiv@aexp)),c
  3815  001056  6427               	goto	u1691
  3816  001058  EF30  F008         	goto	u1690
  3817  00105C  EF32  F008         
  3818                           u1691:
  3819  001060                     	goto	l1915
  3820  001060  EFEE  F007         u1690:
  3821  001064                     	goto	l1931
  3822  001064  EF34  F008         	
  3823                           l767:
  3824  001068                     	line	122
  3825                           	
  3826                           l1931:
  3827  001068                     	movf	((c:___fldiv@rem)),c,w
  3828  001068  501B               iorwf	((c:___fldiv@rem+1)),c,w
  3829  00106A  101C               iorwf	((c:___fldiv@rem+2)),c,w
  3830  00106C  101D               iorwf	((c:___fldiv@rem+3)),c,w
  3831  00106E  101E               	btfsc	status,2
  3832  001070  B4D8               	goto	u1701
  3833  001072  EF3D  F008         	goto	u1700
  3834  001076  EF3F  F008         
  3835                           u1701:
  3836  00107A                     	goto	l1941
  3837  00107A  EF5B  F008         u1700:
  3838  00107E                     	line	123
  3839                           	
  3840                           l1933:
  3841  00107E                     	bsf	(0+(0/8)+(c:___fldiv@grs)),c,(0)&7
  3842  00107E  8022               	goto	l1941
  3843  001080  EF5B  F008         	line	124
  3844                           	
  3845                           l768:
  3846  001084                     	line	127
  3847                           	goto	l1941
  3848  001084  EF5B  F008         	
  3849                           l770:
  3850  001088                     	line	128
  3851                           	
  3852                           l1935:
  3853  001088                     	bcf	status,0
  3854  001088  90D8               	rlcf	((c:___fldiv@b)),c
  3855  00108A  360F               	rlcf	((c:___fldiv@b+1)),c
  3856  00108C  3610               	rlcf	((c:___fldiv@b+2)),c
  3857  00108E  3611               	rlcf	((c:___fldiv@b+3)),c
  3858  001090  3612               	line	129
  3859                           	
  3860                           l1937:
  3861  001092                     	
  3862                           	btfss	((c:___fldiv@grs+3)),c,(31)&7
  3863  001092  AE25               	goto	u1711
  3864  001094  EF4E  F008         	goto	u1710
  3865  001098  EF50  F008         u1711:
  3866  00109C                     	goto	l771
  3867  00109C  EF51  F008         u1710:
  3868  0010A0                     	line	130
  3869                           	
  3870                           l1939:
  3871  0010A0                     	bsf	(0+(0/8)+(c:___fldiv@b)),c,(0)&7
  3872  0010A0  800F               	line	131
  3873                           	
  3874                           l771:
  3875  0010A2                     	line	132
  3876                           	bcf	status,0
  3877  0010A2  90D8               	rlcf	((c:___fldiv@grs)),c
  3878  0010A4  3622               	rlcf	((c:___fldiv@grs+1)),c
  3879  0010A6  3623               	rlcf	((c:___fldiv@grs+2)),c
  3880  0010A8  3624               	rlcf	((c:___fldiv@grs+3)),c
  3881  0010AA  3625               	line	133
  3882                           	decf	((c:___fldiv@new_exp)),c
  3883  0010AC  0620               	btfss	status,0
  3884  0010AE  A0D8               	decf	((c:___fldiv@new_exp+1)),c
  3885  0010B0  0621               	goto	l1941
  3886  0010B2  EF5B  F008         	line	134
  3887                           	
  3888                           l769:
  3889  0010B6                     	line	127
  3890                           	
  3891                           l1941:
  3892  0010B6                     	
  3893                           	btfss	((c:___fldiv@b+2)),c,(23)&7
  3894  0010B6  AE11               	goto	u1721
  3895  0010B8  EF60  F008         	goto	u1720
  3896  0010BC  EF62  F008         u1721:
  3897  0010C0                     	goto	l1935
  3898  0010C0  EF44  F008         u1720:
  3899  0010C4                     	goto	l1943
  3900  0010C4  EF64  F008         	
  3901                           l772:
  3902  0010C8                     	line	139
  3903                           	
  3904                           l1943:
  3905  0010C8                     	movlw	low(0)
  3906  0010C8  0E00               	movwf	((c:___fldiv@aexp)),c
  3907  0010CA  6E27               	line	140
  3908                           	
  3909                           l1945:
  3910  0010CC                     	
  3911                           	btfss	((c:___fldiv@grs+3)),c,(31)&7
  3912  0010CC  AE25               	goto	u1731
  3913  0010CE  EF6B  F008         	goto	u1730
  3914  0010D2  EF6D  F008         u1731:
  3915  0010D6                     	goto	l773
  3916  0010D6  EF95  F008         u1730:
  3917  0010DA                     	line	141
  3918                           	
  3919                           l1947:
  3920  0010DA                     	movlw	0FFh
  3921  0010DA  0EFF               	andwf	((c:___fldiv@grs)),c,w
  3922  0010DC  1422               	movwf	(??___fldiv+0+0)&0ffh,c
  3923  0010DE  6E17               	movlw	0FFh
  3924  0010E0  0EFF               	andwf	((c:___fldiv@grs+1)),c,w
  3925  0010E2  1423               	movwf	1+(??___fldiv+0+0)&0ffh,c
  3926  0010E4  6E18               	
  3927                           	movlw	0FFh
  3928  0010E6  0EFF               	andwf	((c:___fldiv@grs+2)),c,w
  3929  0010E8  1424               	movwf	2+(??___fldiv+0+0)&0ffh,c
  3930  0010EA  6E19               	
  3931                           	movlw	07Fh
  3932  0010EC  0E7F               	andwf	((c:___fldiv@grs+3)),c,w
  3933  0010EE  1425               	movwf	3+(??___fldiv+0+0)&0ffh,c
  3934  0010F0  6E1A               	movf	(??___fldiv+0+0),c,w
  3935  0010F2  5017               iorwf	(??___fldiv+0+1),c,w
  3936  0010F4  1018               iorwf	(??___fldiv+0+2),c,w
  3937  0010F6  1019               iorwf	(??___fldiv+0+3),c,w
  3938  0010F8  101A               	btfsc	status,2
  3939  0010FA  B4D8               	goto	u1741
  3940  0010FC  EF82  F008         	goto	u1740
  3941  001100  EF84  F008         
  3942                           u1741:
  3943  001104                     	goto	l774
  3944  001104  EF88  F008         u1740:
  3945  001108                     	line	142
  3946                           	
  3947                           l1949:
  3948  001108                     	movlw	low(01h)
  3949  001108  0E01               	movwf	((c:___fldiv@aexp)),c
  3950  00110A  6E27               	line	143
  3951                           	goto	l773
  3952  00110C  EF95  F008         	line	144
  3953                           	
  3954                           l774:
  3955  001110                     	line	145
  3956                           	
  3957                           	btfss	((c:___fldiv@b)),c,(0)&7
  3958  001110  A00F               	goto	u1751
  3959  001112  EF8D  F008         	goto	u1750
  3960  001116  EF8F  F008         u1751:
  3961  00111A                     	goto	l773
  3962  00111A  EF95  F008         u1750:
  3963  00111E                     	line	146
  3964                           	
  3965                           l1951:
  3966  00111E                     	movlw	low(01h)
  3967  00111E  0E01               	movwf	((c:___fldiv@aexp)),c
  3968  001120  6E27               	goto	l773
  3969  001122  EF95  F008         	line	147
  3970                           	
  3971                           l776:
  3972  001126                     	goto	l773
  3973  001126  EF95  F008         	line	148
  3974                           	
  3975                           l775:
  3976  00112A                     	line	149
  3977                           	
  3978                           l773:
  3979  00112A                     	line	150
  3980                           	movf	((c:___fldiv@aexp)),c,w
  3981  00112A  5027               	btfsc	status,2
  3982  00112C  B4D8               	goto	u1761
  3983  00112E  EF9B  F008         	goto	u1760
  3984  001132  EF9D  F008         u1761:
  3985  001136                     	goto	l1961
  3986  001136  EFC5  F008         u1760:
  3987  00113A                     	line	151
  3988                           	
  3989                           l1953:
  3990  00113A                     	movlw	low(01h)
  3991  00113A  0E01               	addwf	((c:___fldiv@b)),c
  3992  00113C  260F               	movlw	0
  3993  00113E  0E00               	addwfc	((c:___fldiv@b+1)),c
  3994  001140  2210               	addwfc	((c:___fldiv@b+2)),c
  3995  001142  2211               	addwfc	((c:___fldiv@b+3)),c
  3996  001144  2212               	line	152
  3997                           	
  3998                           l1955:
  3999  001146                     	
  4000                           	btfss	((c:___fldiv@b+3)),c,(24)&7
  4001  001146  A012               	goto	u1771
  4002  001148  EFA8  F008         	goto	u1770
  4003  00114C  EFAA  F008         u1771:
  4004  001150                     	goto	l1961
  4005  001150  EFC5  F008         u1770:
  4006  001154                     	line	153
  4007                           	
  4008                           l1957:
  4009  001154                     	movff	(c:___fldiv@b),??___fldiv+0+0
  4010  001154  C00F  F017         	movff	(c:___fldiv@b+1),??___fldiv+0+0+1
  4011  001158  C010  F018         	movff	(c:___fldiv@b+2),??___fldiv+0+0+2
  4012  00115C  C011  F019         	movff	(c:___fldiv@b+3),??___fldiv+0+0+3
  4013  001160  C012  F01A         	rlcf	(??___fldiv+0+3),c,w
  4014  001164  341A               	rrcf	(??___fldiv+0+3),c
  4015  001166  321A               	rrcf	(??___fldiv+0+2),c
  4016  001168  3219               	rrcf	(??___fldiv+0+1),c
  4017  00116A  3218               	rrcf	(??___fldiv+0+0),c
  4018  00116C  3217               	movff	??___fldiv+0+0,(c:___fldiv@b)
  4019  00116E  C017  F00F         	movff	??___fldiv+0+1,(c:___fldiv@b+1)
  4020  001172  C018  F010         	movff	??___fldiv+0+2,(c:___fldiv@b+2)
  4021  001176  C019  F011         	movff	??___fldiv+0+3,(c:___fldiv@b+3)
  4022  00117A  C01A  F012         	line	154
  4023                           	
  4024                           l1959:
  4025  00117E                     	infsnz	((c:___fldiv@new_exp)),c
  4026  00117E  4A20               	incf	((c:___fldiv@new_exp+1)),c
  4027  001180  2A21               	goto	l1961
  4028  001182  EFC5  F008         	line	155
  4029                           	
  4030                           l778:
  4031  001186                     	goto	l1961
  4032  001186  EFC5  F008         	line	156
  4033                           	
  4034                           l777:
  4035  00118A                     	line	159
  4036                           	
  4037                           l1961:
  4038  00118A                     	btfsc	((c:___fldiv@new_exp+1)),c,7
  4039  00118A  BE21               	goto	u1781
  4040  00118C  EFD0  F008         	movf	((c:___fldiv@new_exp+1)),c,w
  4041  001190  5021               	bnz	u1780
  4042  001192  E108               	incf	((c:___fldiv@new_exp)),c,w
  4043  001194  2820               	btfss	status,0
  4044  001196  A0D8               	goto	u1781
  4045  001198  EFD0  F008         	goto	u1780
  4046  00119C  EFD2  F008         
  4047                           u1781:
  4048  0011A0                     	goto	l1965
  4049  0011A0  EFDF  F008         u1780:
  4050  0011A4                     	line	160
  4051                           	
  4052                           l1963:
  4053  0011A4                     	movlw	high(0FFh)
  4054  0011A4  0E00               	movwf	((c:___fldiv@new_exp+1)),c
  4055  0011A6  6E21               	setf	((c:___fldiv@new_exp)),c
  4056  0011A8  6820               	line	161
  4057                           	movlw	low(0)
  4058  0011AA  0E00               	movwf	((c:___fldiv@b)),c
  4059  0011AC  6E0F               	movlw	high(0)
  4060  0011AE  0E00               	movwf	((c:___fldiv@b+1)),c
  4061  0011B0  6E10               	movlw	low highword(0)
  4062  0011B2  0E00               	movwf	((c:___fldiv@b+2)),c
  4063  0011B4  6E11               	movlw	high highword(0)
  4064  0011B6  0E00               	movwf	((c:___fldiv@b+3)),c
  4065  0011B8  6E12               	goto	l1965
  4066  0011BA  EFDF  F008         	line	162
  4067                           	
  4068                           l779:
  4069  0011BE                     	line	165
  4070                           	
  4071                           l1965:
  4072  0011BE                     	btfsc	((c:___fldiv@new_exp+1)),c,7
  4073  0011BE  BE21               	goto	u1790
  4074  0011C0  EFEC  F008         	movf	((c:___fldiv@new_exp+1)),c,w
  4075  0011C4  5021               	bnz	u1791
  4076  0011C6  E106               	decf	((c:___fldiv@new_exp)),c,w
  4077  0011C8  0420               	btfsc	status,0
  4078  0011CA  B0D8               	goto	u1791
  4079  0011CC  EFEA  F008         	goto	u1790
  4080  0011D0  EFEC  F008         
  4081                           u1791:
  4082  0011D4                     	goto	l1969
  4083  0011D4  EFFC  F008         u1790:
  4084  0011D8                     	line	166
  4085                           	
  4086                           l1967:
  4087  0011D8                     	movlw	high(0)
  4088  0011D8  0E00               	movwf	((c:___fldiv@new_exp+1)),c
  4089  0011DA  6E21               	movlw	low(0)
  4090  0011DC  0E00               	movwf	((c:___fldiv@new_exp)),c
  4091  0011DE  6E20               	line	167
  4092                           	movlw	low(0)
  4093  0011E0  0E00               	movwf	((c:___fldiv@b)),c
  4094  0011E2  6E0F               	movlw	high(0)
  4095  0011E4  0E00               	movwf	((c:___fldiv@b+1)),c
  4096  0011E6  6E10               	movlw	low highword(0)
  4097  0011E8  0E00               	movwf	((c:___fldiv@b+2)),c
  4098  0011EA  6E11               	movlw	high highword(0)
  4099  0011EC  0E00               	movwf	((c:___fldiv@b+3)),c
  4100  0011EE  6E12               	line	169
  4101                           	movlw	low(0)
  4102  0011F0  0E00               	movwf	((c:___fldiv@sign)),c
  4103  0011F2  6E1F               	goto	l1969
  4104  0011F4  EFFC  F008         	line	170
  4105                           	
  4106                           l780:
  4107  0011F8                     	line	173
  4108                           	
  4109                           l1969:
  4110  0011F8                     	movff	(c:___fldiv@new_exp),(c:___fldiv@bexp)
  4111  0011F8  C020  F026         	line	175
  4112                           	
  4113                           l1971:
  4114  0011FC                     	
  4115                           	btfss	((c:___fldiv@bexp)),c,(0)&7
  4116  0011FC  A026               	goto	u1801
  4117  0011FE  EF03  F009         	goto	u1800
  4118  001202  EF05  F009         u1801:
  4119  001206                     	goto	l1975
  4120  001206  EF08  F009         u1800:
  4121  00120A                     	line	176
  4122                           	
  4123                           l1973:
  4124  00120A                     	bsf	(0+(7/8)+0+((c:___fldiv@b)+02h)),c,(7)&7
  4125  00120A  8E11               	line	177
  4126                           	goto	l1977
  4127  00120C  EF0B  F009         	line	179
  4128                           	
  4129                           l781:
  4130  001210                     	line	180
  4131                           	
  4132                           l1975:
  4133  001210                     	bcf	(0+(7/8)+0+((c:___fldiv@b)+02h)),c,(7)&7
  4134  001210  9E11               	goto	l1977
  4135  001212  EF0B  F009         	line	181
  4136                           	
  4137                           l782:
  4138  001216                     	line	182
  4139                           	
  4140                           l1977:
  4141  001216                     	bcf	status,0
  4142  001216  90D8               	rrcf	((c:___fldiv@bexp)),c,w
  4143  001218  3026               	movwf	(0+((c:___fldiv@b)+03h)),c
  4144  00121A  6E12               	line	183
  4145                           	
  4146                           l1979:
  4147  00121C                     	movf	((c:___fldiv@sign)),c,w
  4148  00121C  501F               	iorwf	(0+((c:___fldiv@b)+03h)),c
  4149  00121E  1212               	line	184
  4150                           	
  4151                           l1981:
  4152  001220                     	movff	(c:___fldiv@b),(c:?___fldiv)
  4153  001220  C00F  F00F         	movff	(c:___fldiv@b+1),(c:?___fldiv+1)
  4154  001224  C010  F010         	movff	(c:___fldiv@b+2),(c:?___fldiv+2)
  4155  001228  C011  F011         	movff	(c:___fldiv@b+3),(c:?___fldiv+3)
  4156  00122C  C012  F012         	goto	l760
  4157  001230  EF1A  F009         	
  4158                           l1983:
  4159  001234                     	line	185
  4160                           	
  4161                           l760:
  4162  001234                     	return	;funcret
  4163  001234  0012               	opt stack 0
  4164                           GLOBAL	__end_of___fldiv
  4165                           	__end_of___fldiv:
  4166  001236                     	signat	___fldiv,8316
  4167                           	global	___fladd
  4168                           
  4169 ;; *************** function ___fladd *****************
  4170 ;; Defined at:
  4171 ;;		line 10 in file "/Applications/microchip/xc8/v2.00/pic/sources/c99/common/sprcadd.c"
  4172 ;; Parameters:    Size  Location     Type
  4173 ;;  b               4   39[COMRAM] unsigned char 
  4174 ;;  a               4   43[COMRAM] unsigned char 
  4175 ;; Auto vars:     Size  Location     Type
  4176 ;;  grs             1   58[COMRAM] unsigned char 
  4177 ;;  bexp            1   57[COMRAM] unsigned char 
  4178 ;;  aexp            1   56[COMRAM] unsigned char 
  4179 ;;  signs           1   55[COMRAM] unsigned char 
  4180 ;; Return value:  Size  Location     Type
  4181 ;;                  4   39[COMRAM] unsigned char 
  4182 ;; Registers used:
  4183 ;;		wreg, status,2, status,0
  4184 ;; Tracked objects:
  4185 ;;		On entry : 0/0
  4186 ;;		On exit  : 0/0
  4187 ;;		Unchanged: 0/0
  4188 ;; Data sizes:     COMRAM   BANK0   BANK1   BANK2   BANK3   BANK4   BANK5   BANK6   BANK7
  4189 ;;      Params:         8       0       0       0       0       0       0       0       0
  4190 ;;      Locals:         4       0       0       0       0       0       0       0       0
  4191 ;;      Temps:          8       0       0       0       0       0       0       0       0
  4192 ;;      Totals:        20       0       0       0       0       0       0       0       0
  4193 ;;Total ram usage:       20 bytes
  4194 ;; Hardware stack levels used:    1
  4195 ;; This function calls:
  4196 ;;		Nothing
  4197 ;; This function is called by:
  4198 ;;		_USART_Init
  4199 ;; This function uses a non-reentrant model
  4200 ;;
  4201                           psect	text9,class=CODE,space=0,reloc=2,group=1
  4202                           	file	"/Applications/microchip/xc8/v2.00/pic/sources/c99/common/sprcadd.c"
  4203                           	line	10
  4204                           global __ptext9
  4205                           __ptext9:
  4206  000892                     psect	text9
  4207                           	file	"/Applications/microchip/xc8/v2.00/pic/sources/c99/common/sprcadd.c"
  4208                           	line	10
  4209                           	global	__size_of___fladd
  4210                           	__size_of___fladd	equ	__end_of___fladd-___fladd
  4211  0000                     	
  4212                           ___fladd:
  4213  000892                     ;incstack = 0
  4214                           	opt	stack 29
  4215                           	line	21
  4216                           	
  4217                           l1645:
  4218  000892                     	movf	(0+((c:___fladd@b)+03h)),c,w
  4219  000892  502B               	andlw	low(080h)
  4220  000894  0B80               	movwf	((c:___fladd@signs)),c
  4221  000896  6E38               	line	22
  4222                           	movf	(0+((c:___fladd@b)+03h)),c,w
  4223  000898  502B               	addwf	(0+((c:___fladd@b)+03h)),c,w
  4224  00089A  242B               	movwf	((c:___fladd@bexp)),c
  4225  00089C  6E3A               	line	23
  4226                           	
  4227                           l1647:
  4228  00089E                     	
  4229                           	btfss	(0+((c:___fladd@b)+02h)),c,(7)&7
  4230  00089E  AE2A               	goto	u1191
  4231  0008A0  EF54  F004         	goto	u1190
  4232  0008A4  EF56  F004         u1191:
  4233  0008A8                     	goto	l1651
  4234  0008A8  EF59  F004         u1190:
  4235  0008AC                     	line	24
  4236                           	
  4237                           l1649:
  4238  0008AC                     	bsf	(0+(0/8)+(c:___fladd@bexp)),c,(0)&7
  4239  0008AC  803A               	goto	l1651
  4240  0008AE  EF59  F004         	line	25
  4241                           	
  4242                           l694:
  4243  0008B2                     	line	28
  4244                           	
  4245                           l1651:
  4246  0008B2                     	movf	((c:___fladd@bexp)),c,w
  4247  0008B2  503A               	btfsc	status,2
  4248  0008B4  B4D8               	goto	u1201
  4249  0008B6  EF5F  F004         	goto	u1200
  4250  0008BA  EF61  F004         u1201:
  4251  0008BE                     	goto	l1661
  4252  0008BE  EF78  F004         u1200:
  4253  0008C2                     	line	30
  4254                           	
  4255                           l1653:
  4256  0008C2                     		incf	((c:___fladd@bexp)),c,w
  4257  0008C2  283A               	btfss	status,2
  4258  0008C4  A4D8               	goto	u1211
  4259  0008C6  EF67  F004         	goto	u1210
  4260  0008CA  EF69  F004         
  4261                           u1211:
  4262  0008CE                     	goto	l1657
  4263  0008CE  EF73  F004         u1210:
  4264  0008D2                     	line	32
  4265                           	
  4266                           l1655:
  4267  0008D2                     	movlw	low(normalize32(0x0))
  4268  0008D2  0E00               	movwf	((c:___fladd@b)),c
  4269  0008D4  6E28               	movlw	high(normalize32(0x0))
  4270  0008D6  0E00               	movwf	((c:___fladd@b+1)),c
  4271  0008D8  6E29               	movlw	low highword(normalize32(0x0))
  4272  0008DA  0E00               	movwf	((c:___fladd@b+2)),c
  4273  0008DC  6E2A               	movlw	high highword(normalize32(0x0))
  4274  0008DE  0E00               	movwf	((c:___fladd@b+3)),c
  4275  0008E0  6E2B               	goto	l1657
  4276  0008E2  EF73  F004         	line	33
  4277                           	
  4278                           l696:
  4279  0008E6                     	line	35
  4280                           	
  4281                           l1657:
  4282  0008E6                     	bsf	(0+(23/8)+(c:___fladd@b)),c,(23)&7
  4283  0008E6  8E2A               	line	37
  4284                           	
  4285                           l1659:
  4286  0008E8                     	movlw	low(0)
  4287  0008E8  0E00               	movwf	(0+((c:___fladd@b)+03h)),c
  4288  0008EA  6E2B               	line	38
  4289                           	goto	l1663
  4290  0008EC  EF82  F004         	line	39
  4291                           	
  4292                           l695:
  4293  0008F0                     	line	41
  4294                           	
  4295                           l1661:
  4296  0008F0                     	movlw	low(normalize32(0x0))
  4297  0008F0  0E00               	movwf	((c:___fladd@b)),c
  4298  0008F2  6E28               	movlw	high(normalize32(0x0))
  4299  0008F4  0E00               	movwf	((c:___fladd@b+1)),c
  4300  0008F6  6E29               	movlw	low highword(normalize32(0x0))
  4301  0008F8  0E00               	movwf	((c:___fladd@b+2)),c
  4302  0008FA  6E2A               	movlw	high highword(normalize32(0x0))
  4303  0008FC  0E00               	movwf	((c:___fladd@b+3)),c
  4304  0008FE  6E2B               	goto	l1663
  4305  000900  EF82  F004         	line	42
  4306                           	
  4307                           l697:
  4308  000904                     	line	44
  4309                           	
  4310                           l1663:
  4311  000904                     	movf	(0+((c:___fladd@a)+03h)),c,w
  4312  000904  502F               	andlw	low(080h)
  4313  000906  0B80               	movwf	((c:___fladd@aexp)),c
  4314  000908  6E39               	line	46
  4315                           	
  4316                           l1665:
  4317  00090A                     	movf	((c:___fladd@signs)),c,w
  4318  00090A  5038               xorwf	((c:___fladd@aexp)),c,w
  4319  00090C  1839               	btfsc	status,2
  4320  00090E  B4D8               	goto	u1221
  4321  000910  EF8C  F004         	goto	u1220
  4322  000914  EF8E  F004         
  4323                           u1221:
  4324  000918                     	goto	l1669
  4325  000918  EF91  F004         u1220:
  4326  00091C                     	line	47
  4327                           	
  4328                           l1667:
  4329  00091C                     	bsf	(0+(6/8)+(c:___fladd@signs)),c,(6)&7
  4330  00091C  8C38               	goto	l1669
  4331  00091E  EF91  F004         	line	48
  4332                           	
  4333                           l698:
  4334  000922                     	line	49
  4335                           	
  4336                           l1669:
  4337  000922                     	movf	(0+((c:___fladd@a)+03h)),c,w
  4338  000922  502F               	addwf	(0+((c:___fladd@a)+03h)),c,w
  4339  000924  242F               	movwf	((c:___fladd@aexp)),c
  4340  000926  6E39               	line	50
  4341                           	
  4342                           l1671:
  4343  000928                     	
  4344                           	btfss	(0+((c:___fladd@a)+02h)),c,(7)&7
  4345  000928  AE2E               	goto	u1231
  4346  00092A  EF99  F004         	goto	u1230
  4347  00092E  EF9B  F004         u1231:
  4348  000932                     	goto	l1675
  4349  000932  EF9E  F004         u1230:
  4350  000936                     	line	51
  4351                           	
  4352                           l1673:
  4353  000936                     	bsf	(0+(0/8)+(c:___fladd@aexp)),c,(0)&7
  4354  000936  8039               	goto	l1675
  4355  000938  EF9E  F004         	line	52
  4356                           	
  4357                           l699:
  4358  00093C                     	line	55
  4359                           	
  4360                           l1675:
  4361  00093C                     	movf	((c:___fladd@aexp)),c,w
  4362  00093C  5039               	btfsc	status,2
  4363  00093E  B4D8               	goto	u1241
  4364  000940  EFA4  F004         	goto	u1240
  4365  000944  EFA6  F004         u1241:
  4366  000948                     	goto	l1685
  4367  000948  EFBD  F004         u1240:
  4368  00094C                     	line	57
  4369                           	
  4370                           l1677:
  4371  00094C                     		incf	((c:___fladd@aexp)),c,w
  4372  00094C  2839               	btfss	status,2
  4373  00094E  A4D8               	goto	u1251
  4374  000950  EFAC  F004         	goto	u1250
  4375  000954  EFAE  F004         
  4376                           u1251:
  4377  000958                     	goto	l1681
  4378  000958  EFB8  F004         u1250:
  4379  00095C                     	line	59
  4380                           	
  4381                           l1679:
  4382  00095C                     	movlw	low(normalize32(0x0))
  4383  00095C  0E00               	movwf	((c:___fladd@a)),c
  4384  00095E  6E2C               	movlw	high(normalize32(0x0))
  4385  000960  0E00               	movwf	((c:___fladd@a+1)),c
  4386  000962  6E2D               	movlw	low highword(normalize32(0x0))
  4387  000964  0E00               	movwf	((c:___fladd@a+2)),c
  4388  000966  6E2E               	movlw	high highword(normalize32(0x0))
  4389  000968  0E00               	movwf	((c:___fladd@a+3)),c
  4390  00096A  6E2F               	goto	l1681
  4391  00096C  EFB8  F004         	line	60
  4392                           	
  4393                           l701:
  4394  000970                     	line	62
  4395                           	
  4396                           l1681:
  4397  000970                     	bsf	(0+(23/8)+(c:___fladd@a)),c,(23)&7
  4398  000970  8E2E               	line	64
  4399                           	
  4400                           l1683:
  4401  000972                     	movlw	low(0)
  4402  000972  0E00               	movwf	(0+((c:___fladd@a)+03h)),c
  4403  000974  6E2F               	line	65
  4404                           	goto	l1687
  4405  000976  EFC7  F004         	line	66
  4406                           	
  4407                           l700:
  4408  00097A                     	line	68
  4409                           	
  4410                           l1685:
  4411  00097A                     	movlw	low(normalize32(0x0))
  4412  00097A  0E00               	movwf	((c:___fladd@a)),c
  4413  00097C  6E2C               	movlw	high(normalize32(0x0))
  4414  00097E  0E00               	movwf	((c:___fladd@a+1)),c
  4415  000980  6E2D               	movlw	low highword(normalize32(0x0))
  4416  000982  0E00               	movwf	((c:___fladd@a+2)),c
  4417  000984  6E2E               	movlw	high highword(normalize32(0x0))
  4418  000986  0E00               	movwf	((c:___fladd@a+3)),c
  4419  000988  6E2F               	goto	l1687
  4420  00098A  EFC7  F004         	line	69
  4421                           	
  4422                           l702:
  4423  00098E                     	line	75
  4424                           	
  4425                           l1687:
  4426  00098E                     		movf	((c:___fladd@bexp)),c,w
  4427  00098E  503A               	subwf	((c:___fladd@aexp)),c,w
  4428  000990  5C39               	btfsc	status,0
  4429  000992  B0D8               	goto	u1261
  4430  000994  EFCE  F004         	goto	u1260
  4431  000998  EFD0  F004         
  4432                           u1261:
  4433  00099C                     	goto	l1723
  4434  00099C  EFFB  F004         u1260:
  4435  0009A0                     	line	77
  4436                           	
  4437                           l1689:
  4438  0009A0                     	
  4439                           	btfss	((c:___fladd@signs)),c,(6)&7
  4440  0009A0  AC38               	goto	u1271
  4441  0009A2  EFD5  F004         	goto	u1270
  4442  0009A6  EFD7  F004         u1271:
  4443  0009AA                     	goto	l1693
  4444  0009AA  EFDB  F004         u1270:
  4445  0009AE                     	line	78
  4446                           	
  4447                           l1691:
  4448  0009AE                     	movlw	(080h)&0ffh
  4449  0009AE  0E80               	xorwf	((c:___fladd@signs)),c
  4450  0009B0  1A38               	goto	l1693
  4451  0009B2  EFDB  F004         	line	79
  4452                           	
  4453                           l704:
  4454  0009B6                     	line	81
  4455                           	
  4456                           l1693:
  4457  0009B6                     	movff	(c:___fladd@bexp),(c:___fladd@grs)
  4458  0009B6  C03A  F03B         	line	82
  4459                           	
  4460                           l1695:
  4461  0009BA                     	movff	(c:___fladd@aexp),(c:___fladd@bexp)
  4462  0009BA  C039  F03A         	line	83
  4463                           	
  4464                           l1697:
  4465  0009BE                     	movff	(c:___fladd@grs),(c:___fladd@aexp)
  4466  0009BE  C03B  F039         	line	84
  4467                           	
  4468                           l1699:
  4469  0009C2                     	movff	(c:___fladd@b),(c:___fladd@grs)
  4470  0009C2  C028  F03B         	line	85
  4471                           	
  4472                           l1701:
  4473  0009C6                     	movff	(c:___fladd@a),(c:___fladd@b)
  4474  0009C6  C02C  F028         	line	86
  4475                           	
  4476                           l1703:
  4477  0009CA                     	movff	(c:___fladd@grs),(c:___fladd@a)
  4478  0009CA  C03B  F02C         	line	87
  4479                           	
  4480                           l1705:
  4481  0009CE                     	movff	0+((c:___fladd@b)+01h),(c:___fladd@grs)
  4482  0009CE  C029  F03B         	line	88
  4483                           	
  4484                           l1707:
  4485  0009D2                     	movff	0+((c:___fladd@a)+01h),0+((c:___fladd@b)+01h)
  4486  0009D2  C02D  F029         	line	89
  4487                           	
  4488                           l1709:
  4489  0009D6                     	movff	(c:___fladd@grs),0+((c:___fladd@a)+01h)
  4490  0009D6  C03B  F02D         	line	90
  4491                           	
  4492                           l1711:
  4493  0009DA                     	movff	0+((c:___fladd@b)+02h),(c:___fladd@grs)
  4494  0009DA  C02A  F03B         	line	91
  4495                           	
  4496                           l1713:
  4497  0009DE                     	movff	0+((c:___fladd@a)+02h),0+((c:___fladd@b)+02h)
  4498  0009DE  C02E  F02A         	line	92
  4499                           	
  4500                           l1715:
  4501  0009E2                     	movff	(c:___fladd@grs),0+((c:___fladd@a)+02h)
  4502  0009E2  C03B  F02E         	line	93
  4503                           	
  4504                           l1717:
  4505  0009E6                     	movff	0+((c:___fladd@b)+03h),(c:___fladd@grs)
  4506  0009E6  C02B  F03B         	line	94
  4507                           	
  4508                           l1719:
  4509  0009EA                     	movff	0+((c:___fladd@a)+03h),0+((c:___fladd@b)+03h)
  4510  0009EA  C02F  F02B         	line	95
  4511                           	
  4512                           l1721:
  4513  0009EE                     	movff	(c:___fladd@grs),0+((c:___fladd@a)+03h)
  4514  0009EE  C03B  F02F         	goto	l1723
  4515  0009F2  EFFB  F004         	line	96
  4516                           	
  4517                           l703:
  4518  0009F6                     	line	98
  4519                           	
  4520                           l1723:
  4521  0009F6                     	movlw	low(0)
  4522  0009F6  0E00               	movwf	((c:___fladd@grs)),c
  4523  0009F8  6E3B               	line	100
  4524                           	
  4525                           l1725:
  4526  0009FA                     	movf	((c:___fladd@bexp)),c,w
  4527  0009FA  503A               	movwf	(??___fladd+0+0)&0ffh,c
  4528  0009FC  6E30               	clrf	(??___fladd+0+0+1)&0ffh,c
  4529  0009FE  6A31               
  4530                           	comf	(??___fladd+0+0),c
  4531  000A00  1E30               	comf	(??___fladd+0+1),c
  4532  000A02  1E31               	infsnz	(??___fladd+0+0),c
  4533  000A04  4A30               	incf	(??___fladd+0+1),c
  4534  000A06  2A31               	movf	((c:___fladd@aexp)),c,w
  4535  000A08  5039               	movwf	(??___fladd+2+0)&0ffh,c
  4536  000A0A  6E32               	clrf	(??___fladd+2+0+1)&0ffh,c
  4537  000A0C  6A33               
  4538                           	movf	(??___fladd+0+0),c,w
  4539  000A0E  5030               	addwf	(??___fladd+2+0),c
  4540  000A10  2632               	movf	(??___fladd+0+1),c,w
  4541  000A12  5031               	addwfc	(??___fladd+2+1),c
  4542  000A14  2233               	btfsc	(??___fladd+2+1),c,7
  4543  000A16  BE33               	goto	u1281
  4544  000A18  EF17  F005         	movf	(??___fladd+2+1),c,w
  4545  000A1C  5033               	bnz	u1280
  4546  000A1E  E109               	movlw	26
  4547  000A20  0E1A               	subwf	 (??___fladd+2+0),c,w
  4548  000A22  5C32               	btfss	status,0
  4549  000A24  A0D8               	goto	u1281
  4550  000A26  EF17  F005         	goto	u1280
  4551  000A2A  EF19  F005         
  4552                           u1281:
  4553  000A2E                     	goto	l707
  4554  000A2E  EF56  F005         u1280:
  4555  000A32                     	line	101
  4556                           	
  4557                           l1727:
  4558  000A32                     	movf	((c:___fladd@b)),c,w
  4559  000A32  5028               iorwf	((c:___fladd@b+1)),c,w
  4560  000A34  1029               iorwf	((c:___fladd@b+2)),c,w
  4561  000A36  102A               iorwf	((c:___fladd@b+3)),c,w
  4562  000A38  102B               	btfss	status,2
  4563  000A3A  A4D8               	goto	u1291
  4564  000A3C  EF22  F005         	goto	u1290
  4565  000A40  EF25  F005         
  4566                           u1291:
  4567  000A44                     	movlw	1
  4568  000A44  0E01               	goto	u1300
  4569  000A46  EF26  F005         u1290:
  4570  000A4A                     	movlw	0
  4571  000A4A  0E00               u1300:
  4572  000A4C                     	movwf	((c:___fladd@grs)),c
  4573  000A4C  6E3B               	line	102
  4574                           	
  4575                           l1729:
  4576  000A4E                     	movlw	low(0)
  4577  000A4E  0E00               	movwf	((c:___fladd@b)),c
  4578  000A50  6E28               	movlw	high(0)
  4579  000A52  0E00               	movwf	((c:___fladd@b+1)),c
  4580  000A54  6E29               	movlw	low highword(0)
  4581  000A56  0E00               	movwf	((c:___fladd@b+2)),c
  4582  000A58  6E2A               	movlw	high highword(0)
  4583  000A5A  0E00               	movwf	((c:___fladd@b+3)),c
  4584  000A5C  6E2B               	line	103
  4585                           	
  4586                           l1731:
  4587  000A5E                     	movff	(c:___fladd@aexp),(c:___fladd@bexp)
  4588  000A5E  C039  F03A         	line	104
  4589                           	goto	l706
  4590  000A62  EF61  F005         	line	105
  4591                           	
  4592                           l705:
  4593  000A66                     	line	106
  4594                           	goto	l707
  4595  000A66  EF56  F005         	
  4596                           l708:
  4597  000A6A                     	line	109
  4598                           	
  4599                           	btfss	((c:___fladd@grs)),c,(0)&7
  4600  000A6A  A03B               	goto	u1311
  4601  000A6C  EF3A  F005         	goto	u1310
  4602  000A70  EF3C  F005         u1311:
  4603  000A74                     	goto	l1735
  4604  000A74  EF42  F005         u1310:
  4605  000A78                     	line	110
  4606                           	
  4607                           l1733:
  4608  000A78                     	bcf	status,0
  4609  000A78  90D8               	rrcf	((c:___fladd@grs)),c,w
  4610  000A7A  303B               	iorlw	low(01h)
  4611  000A7C  0901               	movwf	((c:___fladd@grs)),c
  4612  000A7E  6E3B               	line	111
  4613                           	goto	l1737
  4614  000A80  EF46  F005         	line	112
  4615                           	
  4616                           l709:
  4617  000A84                     	line	113
  4618                           	
  4619                           l1735:
  4620  000A84                     	bcf status,0
  4621  000A84  90D8               	rrcf	((c:___fladd@grs)),c
  4622  000A86  323B               
  4623                           	goto	l1737
  4624  000A88  EF46  F005         	line	114
  4625                           	
  4626                           l710:
  4627  000A8C                     	line	115
  4628                           	
  4629                           l1737:
  4630  000A8C                     	
  4631                           	btfss	((c:___fladd@b)),c,(0)&7
  4632  000A8C  A028               	goto	u1321
  4633  000A8E  EF4B  F005         	goto	u1320
  4634  000A92  EF4D  F005         u1321:
  4635  000A96                     	goto	l1741
  4636  000A96  EF50  F005         u1320:
  4637  000A9A                     	line	116
  4638                           	
  4639                           l1739:
  4640  000A9A                     	bsf	(0+(7/8)+(c:___fladd@grs)),c,(7)&7
  4641  000A9A  8E3B               	goto	l1741
  4642  000A9C  EF50  F005         	line	117
  4643                           	
  4644                           l711:
  4645  000AA0                     	line	118
  4646                           	
  4647                           l1741:
  4648  000AA0                     	rlcf	((c:___fladd@b+3)),c,w
  4649  000AA0  342B               	rrcf	((c:___fladd@b+3)),c
  4650  000AA2  322B               	rrcf	((c:___fladd@b+2)),c
  4651  000AA4  322A               	rrcf	((c:___fladd@b+1)),c
  4652  000AA6  3229               	rrcf	((c:___fladd@b)),c
  4653  000AA8  3228               	line	119
  4654                           	
  4655                           l1743:
  4656  000AAA                     	incf	((c:___fladd@bexp)),c
  4657  000AAA  2A3A               	line	120
  4658                           	
  4659                           l707:
  4660  000AAC                     	line	106
  4661                           		movf	((c:___fladd@aexp)),c,w
  4662  000AAC  5039               	subwf	((c:___fladd@bexp)),c,w
  4663  000AAE  5C3A               	btfss	status,0
  4664  000AB0  A0D8               	goto	u1331
  4665  000AB2  EF5D  F005         	goto	u1330
  4666  000AB6  EF5F  F005         
  4667                           u1331:
  4668  000ABA                     	goto	l708
  4669  000ABA  EF35  F005         u1330:
  4670  000ABE                     	goto	l706
  4671  000ABE  EF61  F005         	
  4672                           l712:
  4673  000AC2                     	line	121
  4674                           	
  4675                           l706:
  4676  000AC2                     	line	124
  4677                           	
  4678                           	btfsc	((c:___fladd@signs)),c,(6)&7
  4679  000AC2  BC38               	goto	u1341
  4680  000AC4  EF66  F005         	goto	u1340
  4681  000AC8  EF68  F005         u1341:
  4682  000ACC                     	goto	l1769
  4683  000ACC  EFB0  F005         u1340:
  4684  000AD0                     	line	127
  4685                           	
  4686                           l1745:
  4687  000AD0                     	movf	((c:___fladd@bexp)),c,w
  4688  000AD0  503A               	btfss	status,2
  4689  000AD2  A4D8               	goto	u1351
  4690  000AD4  EF6E  F005         	goto	u1350
  4691  000AD8  EF70  F005         u1351:
  4692  000ADC                     	goto	l1751
  4693  000ADC  EF7C  F005         u1350:
  4694  000AE0                     	line	128
  4695                           	
  4696                           l1747:
  4697  000AE0                     	movlw	low(normalize32(0x0))
  4698  000AE0  0E00               	movwf	((c:?___fladd)),c
  4699  000AE2  6E28               	movlw	high(normalize32(0x0))
  4700  000AE4  0E00               	movwf	((c:?___fladd+1)),c
  4701  000AE6  6E29               	movlw	low highword(normalize32(0x0))
  4702  000AE8  0E00               	movwf	((c:?___fladd+2)),c
  4703  000AEA  6E2A               	movlw	high highword(normalize32(0x0))
  4704  000AEC  0E00               	movwf	((c:?___fladd+3)),c
  4705  000AEE  6E2B               	goto	l715
  4706  000AF0  EF0A  F007         	
  4707                           l1749:
  4708  000AF4                     	goto	l715
  4709  000AF4  EF0A  F007         	line	129
  4710                           	
  4711                           l714:
  4712  000AF8                     	line	132
  4713                           	
  4714                           l1751:
  4715  000AF8                     	movf	((c:___fladd@a)),c,w
  4716  000AF8  502C               	addwf	((c:___fladd@b)),c
  4717  000AFA  2628               	movf	((c:___fladd@a+1)),c,w
  4718  000AFC  502D               	addwfc	((c:___fladd@b+1)),c
  4719  000AFE  2229               	movf	((c:___fladd@a+2)),c,w
  4720  000B00  502E               	addwfc	((c:___fladd@b+2)),c
  4721  000B02  222A               	movf	((c:___fladd@a+3)),c,w
  4722  000B04  502F               	addwfc	((c:___fladd@b+3)),c
  4723  000B06  222B               	line	134
  4724                           	
  4725                           l1753:
  4726  000B08                     	
  4727                           	btfss	((c:___fladd@b+3)),c,(24)&7
  4728  000B08  A02B               	goto	u1361
  4729  000B0A  EF89  F005         	goto	u1360
  4730  000B0E  EF8B  F005         u1361:
  4731  000B12                     	goto	l1805
  4732  000B12  EF60  F006         u1360:
  4733  000B16                     	line	135
  4734                           	
  4735                           l1755:
  4736  000B16                     	
  4737                           	btfss	((c:___fladd@grs)),c,(0)&7
  4738  000B16  A03B               	goto	u1371
  4739  000B18  EF90  F005         	goto	u1370
  4740  000B1C  EF92  F005         u1371:
  4741  000B20                     	goto	l1759
  4742  000B20  EF98  F005         u1370:
  4743  000B24                     	line	136
  4744                           	
  4745                           l1757:
  4746  000B24                     	bcf	status,0
  4747  000B24  90D8               	rrcf	((c:___fladd@grs)),c,w
  4748  000B26  303B               	iorlw	low(01h)
  4749  000B28  0901               	movwf	((c:___fladd@grs)),c
  4750  000B2A  6E3B               	line	137
  4751                           	goto	l1761
  4752  000B2C  EF9C  F005         	line	138
  4753                           	
  4754                           l717:
  4755  000B30                     	line	139
  4756                           	
  4757                           l1759:
  4758  000B30                     	bcf status,0
  4759  000B30  90D8               	rrcf	((c:___fladd@grs)),c
  4760  000B32  323B               
  4761                           	goto	l1761
  4762  000B34  EF9C  F005         	line	140
  4763                           	
  4764                           l718:
  4765  000B38                     	line	141
  4766                           	
  4767                           l1761:
  4768  000B38                     	
  4769                           	btfss	((c:___fladd@b)),c,(0)&7
  4770  000B38  A028               	goto	u1381
  4771  000B3A  EFA1  F005         	goto	u1380
  4772  000B3E  EFA3  F005         u1381:
  4773  000B42                     	goto	l1765
  4774  000B42  EFA6  F005         u1380:
  4775  000B46                     	line	142
  4776                           	
  4777                           l1763:
  4778  000B46                     	bsf	(0+(7/8)+(c:___fladd@grs)),c,(7)&7
  4779  000B46  8E3B               	goto	l1765
  4780  000B48  EFA6  F005         	line	143
  4781                           	
  4782                           l719:
  4783  000B4C                     	line	144
  4784                           	
  4785                           l1765:
  4786  000B4C                     	rlcf	((c:___fladd@b+3)),c,w
  4787  000B4C  342B               	rrcf	((c:___fladd@b+3)),c
  4788  000B4E  322B               	rrcf	((c:___fladd@b+2)),c
  4789  000B50  322A               	rrcf	((c:___fladd@b+1)),c
  4790  000B52  3229               	rrcf	((c:___fladd@b)),c
  4791  000B54  3228               	line	145
  4792                           	
  4793                           l1767:
  4794  000B56                     	incf	((c:___fladd@bexp)),c
  4795  000B56  2A3A               	goto	l1805
  4796  000B58  EF60  F006         	line	146
  4797                           	
  4798                           l716:
  4799  000B5C                     	line	148
  4800                           	goto	l1805
  4801  000B5C  EF60  F006         	line	149
  4802                           	
  4803                           l713:
  4804  000B60                     	line	153
  4805                           	
  4806                           l1769:
  4807  000B60                     		movf	((c:___fladd@a)),c,w
  4808  000B60  502C               	subwf	((c:___fladd@b)),c,w
  4809  000B62  5C28               	movf	((c:___fladd@a+1)),c,w
  4810  000B64  502D               	subwfb	((c:___fladd@b+1)),c,w
  4811  000B66  5829               	movf	((c:___fladd@a+2)),c,w
  4812  000B68  502E               	subwfb	((c:___fladd@b+2)),c,w
  4813  000B6A  582A               	movf	((c:___fladd@b+3)),c,w
  4814  000B6C  502B               	xorlw	80h
  4815  000B6E  0A80               	movwf	(??___fladd+0+0)&0ffh,c
  4816  000B70  6E30               	movf	((c:___fladd@a+3)),c,w
  4817  000B72  502F               	xorlw	80h
  4818  000B74  0A80               	subwfb	(??___fladd+0+0)&0ffh,c,w
  4819  000B76  5830               	btfsc	status,0
  4820  000B78  B0D8               	goto	u1391
  4821  000B7A  EFC1  F005         	goto	u1390
  4822  000B7E  EFC3  F005         
  4823                           u1391:
  4824  000B82                     	goto	l1779
  4825  000B82  EF01  F006         u1390:
  4826  000B86                     	line	154
  4827                           	
  4828                           l1771:
  4829  000B86                     	movff	(c:___fladd@b),??___fladd+0+0
  4830  000B86  C028  F030         	movff	(c:___fladd@b+1),??___fladd+0+0+1
  4831  000B8A  C029  F031         	movff	(c:___fladd@b+2),??___fladd+0+0+2
  4832  000B8E  C02A  F032         	movff	(c:___fladd@b+3),??___fladd+0+0+3
  4833  000B92  C02B  F033         	comf	(??___fladd+0+0),c
  4834  000B96  1E30               	comf	(??___fladd+0+1),c
  4835  000B98  1E31               	comf	(??___fladd+0+2),c
  4836  000B9A  1E32               	comf	(??___fladd+0+3),c
  4837  000B9C  1E33               	incf	(??___fladd+0+0),c
  4838  000B9E  2A30               	movlw	0
  4839  000BA0  0E00               	addwfc	(??___fladd+0+1),c
  4840  000BA2  2231               	addwfc	(??___fladd+0+2),c
  4841  000BA4  2232               	addwfc	(??___fladd+0+3),c
  4842  000BA6  2233               	movf	((c:___fladd@a)),c,w
  4843  000BA8  502C               	addwf	(??___fladd+0+0),c,w
  4844  000BAA  2430               	movwf	(??___fladd+4+0)&0ffh,c
  4845  000BAC  6E34               	movf	((c:___fladd@a+1)),c,w
  4846  000BAE  502D               	addwfc	(??___fladd+0+1),c,w
  4847  000BB0  2031               	movwf	1+(??___fladd+4+0)&0ffh,c
  4848  000BB2  6E35               	
  4849                           	movf	((c:___fladd@a+2)),c,w
  4850  000BB4  502E               	addwfc	(??___fladd+0+2),c,w
  4851  000BB6  2032               	movwf	2+(??___fladd+4+0)&0ffh,c
  4852  000BB8  6E36               	
  4853                           	movf	((c:___fladd@a+3)),c,w
  4854  000BBA  502F               	addwfc	(??___fladd+0+3),c,w
  4855  000BBC  2033               	movwf	3+(??___fladd+4+0)&0ffh,c
  4856  000BBE  6E37               	movlw	0FFh
  4857  000BC0  0EFF               	addwf	(??___fladd+4+0),c,w
  4858  000BC2  2434               	movwf	((c:___fladd@b)),c
  4859  000BC4  6E28               	movlw	0FFh
  4860  000BC6  0EFF               	addwfc	(??___fladd+4+1),c,w
  4861  000BC8  2035               	movwf	1+((c:___fladd@b)),c
  4862  000BCA  6E29               	
  4863                           	movlw	0FFh
  4864  000BCC  0EFF               	addwfc	(??___fladd+4+2),c,w
  4865  000BCE  2036               	movwf	2+((c:___fladd@b)),c
  4866  000BD0  6E2A               	
  4867                           	movlw	0FFh
  4868  000BD2  0EFF               	addwfc	(??___fladd+4+3),c,w
  4869  000BD4  2037               	movwf	3+((c:___fladd@b)),c
  4870  000BD6  6E2B               	line	155
  4871                           	movlw	(080h)&0ffh
  4872  000BD8  0E80               	xorwf	((c:___fladd@signs)),c
  4873  000BDA  1A38               	line	156
  4874                           	
  4875                           l1773:
  4876  000BDC                     	negf	((c:___fladd@grs)),c
  4877  000BDC  6C3B               	line	157
  4878                           	
  4879                           l1775:
  4880  000BDE                     	movf	((c:___fladd@grs)),c,w
  4881  000BDE  503B               	btfss	status,2
  4882  000BE0  A4D8               	goto	u1401
  4883  000BE2  EFF5  F005         	goto	u1400
  4884  000BE6  EFF7  F005         u1401:
  4885  000BEA                     	goto	l723
  4886  000BEA  EF09  F006         u1400:
  4887  000BEE                     	line	158
  4888                           	
  4889                           l1777:
  4890  000BEE                     	movlw	low(01h)
  4891  000BEE  0E01               	addwf	((c:___fladd@b)),c
  4892  000BF0  2628               	movlw	0
  4893  000BF2  0E00               	addwfc	((c:___fladd@b+1)),c
  4894  000BF4  2229               	addwfc	((c:___fladd@b+2)),c
  4895  000BF6  222A               	addwfc	((c:___fladd@b+3)),c
  4896  000BF8  222B               	goto	l723
  4897  000BFA  EF09  F006         	line	159
  4898                           	
  4899                           l722:
  4900  000BFE                     	line	160
  4901                           	goto	l723
  4902  000BFE  EF09  F006         	line	161
  4903                           	
  4904                           l721:
  4905  000C02                     	line	162
  4906                           	
  4907                           l1779:
  4908  000C02                     	movf	((c:___fladd@a)),c,w
  4909  000C02  502C               	subwf	((c:___fladd@b)),c
  4910  000C04  5E28               	movf	((c:___fladd@a+1)),c,w
  4911  000C06  502D               	subwfb	((c:___fladd@b+1)),c
  4912  000C08  5A29               	movf	((c:___fladd@a+2)),c,w
  4913  000C0A  502E               	subwfb	((c:___fladd@b+2)),c
  4914  000C0C  5A2A               	movf	((c:___fladd@a+3)),c,w
  4915  000C0E  502F               	subwfb	((c:___fladd@b+3)),c
  4916  000C10  5A2B               	line	163
  4917                           	
  4918                           l723:
  4919  000C12                     	line	166
  4920                           	movf	((c:___fladd@b)),c,w
  4921  000C12  5028               iorwf	((c:___fladd@b+1)),c,w
  4922  000C14  1029               iorwf	((c:___fladd@b+2)),c,w
  4923  000C16  102A               iorwf	((c:___fladd@b+3)),c,w
  4924  000C18  102B               	btfss	status,2
  4925  000C1A  A4D8               	goto	u1411
  4926  000C1C  EF12  F006         	goto	u1410
  4927  000C20  EF14  F006         
  4928                           u1411:
  4929  000C24                     	goto	l1803
  4930  000C24  EF55  F006         u1410:
  4931  000C28                     	
  4932                           l1781:
  4933  000C28                     	movf	((c:___fladd@grs)),c,w
  4934  000C28  503B               	btfss	status,2
  4935  000C2A  A4D8               	goto	u1421
  4936  000C2C  EF1A  F006         	goto	u1420
  4937  000C30  EF1C  F006         u1421:
  4938  000C34                     	goto	l1803
  4939  000C34  EF55  F006         u1420:
  4940  000C38                     	line	167
  4941                           	
  4942                           l1783:
  4943  000C38                     	movlw	low(normalize32(0x0))
  4944  000C38  0E00               	movwf	((c:?___fladd)),c
  4945  000C3A  6E28               	movlw	high(normalize32(0x0))
  4946  000C3C  0E00               	movwf	((c:?___fladd+1)),c
  4947  000C3E  6E29               	movlw	low highword(normalize32(0x0))
  4948  000C40  0E00               	movwf	((c:?___fladd+2)),c
  4949  000C42  6E2A               	movlw	high highword(normalize32(0x0))
  4950  000C44  0E00               	movwf	((c:?___fladd+3)),c
  4951  000C46  6E2B               	goto	l715
  4952  000C48  EF0A  F007         	
  4953                           l1785:
  4954  000C4C                     	goto	l715
  4955  000C4C  EF0A  F007         	line	168
  4956                           	
  4957                           l724:
  4958  000C50                     	line	171
  4959                           	goto	l1803
  4960  000C50  EF55  F006         	
  4961                           l726:
  4962  000C54                     	line	172
  4963                           	
  4964                           l1787:
  4965  000C54                     	bcf	status,0
  4966  000C54  90D8               	rlcf	((c:___fladd@b)),c
  4967  000C56  3628               	rlcf	((c:___fladd@b+1)),c
  4968  000C58  3629               	rlcf	((c:___fladd@b+2)),c
  4969  000C5A  362A               	rlcf	((c:___fladd@b+3)),c
  4970  000C5C  362B               	line	173
  4971                           	
  4972                           l1789:
  4973  000C5E                     	
  4974                           	btfss	((c:___fladd@grs)),c,(7)&7
  4975  000C5E  AE3B               	goto	u1431
  4976  000C60  EF34  F006         	goto	u1430
  4977  000C64  EF36  F006         u1431:
  4978  000C68                     	goto	l1793
  4979  000C68  EF39  F006         u1430:
  4980  000C6C                     	line	174
  4981                           	
  4982                           l1791:
  4983  000C6C                     	bsf	(0+(0/8)+(c:___fladd@b)),c,(0)&7
  4984  000C6C  8028               	goto	l1793
  4985  000C6E  EF39  F006         	line	175
  4986                           	
  4987                           l727:
  4988  000C72                     	line	176
  4989                           	
  4990                           l1793:
  4991  000C72                     	
  4992                           	btfss	((c:___fladd@grs)),c,(0)&7
  4993  000C72  A03B               	goto	u1441
  4994  000C74  EF3E  F006         	goto	u1440
  4995  000C78  EF40  F006         u1441:
  4996  000C7C                     	goto	l1797
  4997  000C7C  EF44  F006         u1440:
  4998  000C80                     	line	177
  4999                           	
  5000                           l1795:
  5001  000C80                     	bsf	status,0
  5002  000C80  80D8               	
  5003                           	rlcf	((c:___fladd@grs)),c
  5004  000C82  363B               	line	178
  5005                           	goto	l1799
  5006  000C84  EF48  F006         	line	179
  5007                           	
  5008                           l728:
  5009  000C88                     	line	180
  5010                           	
  5011                           l1797:
  5012  000C88                     	bcf status,0
  5013  000C88  90D8               	rlcf	((c:___fladd@grs)),c
  5014  000C8A  363B               
  5015                           	goto	l1799
  5016  000C8C  EF48  F006         	line	181
  5017                           	
  5018                           l729:
  5019  000C90                     	line	182
  5020                           	
  5021                           l1799:
  5022  000C90                     	movf	((c:___fladd@bexp)),c,w
  5023  000C90  503A               	btfsc	status,2
  5024  000C92  B4D8               	goto	u1451
  5025  000C94  EF4E  F006         	goto	u1450
  5026  000C98  EF50  F006         u1451:
  5027  000C9C                     	goto	l1803
  5028  000C9C  EF55  F006         u1450:
  5029  000CA0                     	line	183
  5030                           	
  5031                           l1801:
  5032  000CA0                     	decf	((c:___fladd@bexp)),c
  5033  000CA0  063A               	goto	l1803
  5034  000CA2  EF55  F006         	line	184
  5035                           	
  5036                           l730:
  5037  000CA6                     	goto	l1803
  5038  000CA6  EF55  F006         	line	185
  5039                           	
  5040                           l725:
  5041  000CAA                     	line	171
  5042                           	
  5043                           l1803:
  5044  000CAA                     	
  5045                           	btfss	((c:___fladd@b+2)),c,(23)&7
  5046  000CAA  AE2A               	goto	u1461
  5047  000CAC  EF5A  F006         	goto	u1460
  5048  000CB0  EF5C  F006         u1461:
  5049  000CB4                     	goto	l1787
  5050  000CB4  EF2A  F006         u1460:
  5051  000CB8                     	goto	l1805
  5052  000CB8  EF60  F006         	
  5053                           l731:
  5054  000CBC                     	goto	l1805
  5055  000CBC  EF60  F006         	line	186
  5056                           	
  5057                           l720:
  5058  000CC0                     	line	192
  5059                           	
  5060                           l1805:
  5061  000CC0                     	movlw	low(0)
  5062  000CC0  0E00               	movwf	((c:___fladd@aexp)),c
  5063  000CC2  6E39               	line	193
  5064                           	
  5065                           l1807:
  5066  000CC4                     	
  5067                           	btfss	((c:___fladd@grs)),c,(7)&7
  5068  000CC4  AE3B               	goto	u1471
  5069  000CC6  EF67  F006         	goto	u1470
  5070  000CCA  EF69  F006         u1471:
  5071  000CCE                     	goto	l732
  5072  000CCE  EF85  F006         u1470:
  5073  000CD2                     	line	194
  5074                           	
  5075                           l1809:
  5076  000CD2                     	movff	(c:___fladd@grs),??___fladd+0+0
  5077  000CD2  C03B  F030         	movlw	07Fh
  5078  000CD6  0E7F               	andwf	(??___fladd+0+0),c
  5079  000CD8  1630               	btfsc	status,2
  5080  000CDA  B4D8               	goto	u1481
  5081  000CDC  EF72  F006         	goto	u1480
  5082  000CE0  EF74  F006         u1481:
  5083  000CE4                     	goto	l733
  5084  000CE4  EF78  F006         u1480:
  5085  000CE8                     	line	195
  5086                           	
  5087                           l1811:
  5088  000CE8                     	movlw	low(01h)
  5089  000CE8  0E01               	movwf	((c:___fladd@aexp)),c
  5090  000CEA  6E39               	line	196
  5091                           	goto	l732
  5092  000CEC  EF85  F006         	line	197
  5093                           	
  5094                           l733:
  5095  000CF0                     	line	198
  5096                           	
  5097                           	btfss	((c:___fladd@b)),c,(0)&7
  5098  000CF0  A028               	goto	u1491
  5099  000CF2  EF7D  F006         	goto	u1490
  5100  000CF6  EF7F  F006         u1491:
  5101  000CFA                     	goto	l732
  5102  000CFA  EF85  F006         u1490:
  5103  000CFE                     	line	199
  5104                           	
  5105                           l1813:
  5106  000CFE                     	movlw	low(01h)
  5107  000CFE  0E01               	movwf	((c:___fladd@aexp)),c
  5108  000D00  6E39               	goto	l732
  5109  000D02  EF85  F006         	line	200
  5110                           	
  5111                           l735:
  5112  000D06                     	goto	l732
  5113  000D06  EF85  F006         	line	201
  5114                           	
  5115                           l734:
  5116  000D0A                     	line	202
  5117                           	
  5118                           l732:
  5119  000D0A                     	line	203
  5120                           	movf	((c:___fladd@aexp)),c,w
  5121  000D0A  5039               	btfsc	status,2
  5122  000D0C  B4D8               	goto	u1501
  5123  000D0E  EF8B  F006         	goto	u1500
  5124  000D12  EF8D  F006         u1501:
  5125  000D16                     	goto	l1823
  5126  000D16  EFBE  F006         u1500:
  5127  000D1A                     	line	204
  5128                           	
  5129                           l1815:
  5130  000D1A                     	movlw	low(01h)
  5131  000D1A  0E01               	addwf	((c:___fladd@b)),c
  5132  000D1C  2628               	movlw	0
  5133  000D1E  0E00               	addwfc	((c:___fladd@b+1)),c
  5134  000D20  2229               	addwfc	((c:___fladd@b+2)),c
  5135  000D22  222A               	addwfc	((c:___fladd@b+3)),c
  5136  000D24  222B               	line	205
  5137                           	
  5138                           l1817:
  5139  000D26                     	
  5140                           	btfss	((c:___fladd@b+3)),c,(24)&7
  5141  000D26  A02B               	goto	u1511
  5142  000D28  EF98  F006         	goto	u1510
  5143  000D2C  EF9A  F006         u1511:
  5144  000D30                     	goto	l1823
  5145  000D30  EFBE  F006         u1510:
  5146  000D34                     	line	206
  5147                           	
  5148                           l1819:
  5149  000D34                     	movff	(c:___fladd@b),??___fladd+0+0
  5150  000D34  C028  F030         	movff	(c:___fladd@b+1),??___fladd+0+0+1
  5151  000D38  C029  F031         	movff	(c:___fladd@b+2),??___fladd+0+0+2
  5152  000D3C  C02A  F032         	movff	(c:___fladd@b+3),??___fladd+0+0+3
  5153  000D40  C02B  F033         	rlcf	(??___fladd+0+3),c,w
  5154  000D44  3433               	rrcf	(??___fladd+0+3),c
  5155  000D46  3233               	rrcf	(??___fladd+0+2),c
  5156  000D48  3232               	rrcf	(??___fladd+0+1),c
  5157  000D4A  3231               	rrcf	(??___fladd+0+0),c
  5158  000D4C  3230               	movff	??___fladd+0+0,(c:___fladd@b)
  5159  000D4E  C030  F028         	movff	??___fladd+0+1,(c:___fladd@b+1)
  5160  000D52  C031  F029         	movff	??___fladd+0+2,(c:___fladd@b+2)
  5161  000D56  C032  F02A         	movff	??___fladd+0+3,(c:___fladd@b+3)
  5162  000D5A  C033  F02B         	line	207
  5163                           		incf	((c:___fladd@bexp)),c,w
  5164  000D5E  283A               	btfsc	status,2
  5165  000D60  B4D8               	goto	u1521
  5166  000D62  EFB5  F006         	goto	u1520
  5167  000D66  EFB7  F006         
  5168                           u1521:
  5169  000D6A                     	goto	l1823
  5170  000D6A  EFBE  F006         u1520:
  5171  000D6E                     	line	208
  5172                           	
  5173                           l1821:
  5174  000D6E                     	incf	((c:___fladd@bexp)),c
  5175  000D6E  2A3A               	goto	l1823
  5176  000D70  EFBE  F006         	line	209
  5177                           	
  5178                           l738:
  5179  000D74                     	goto	l1823
  5180  000D74  EFBE  F006         	line	210
  5181                           	
  5182                           l737:
  5183  000D78                     	goto	l1823
  5184  000D78  EFBE  F006         	line	211
  5185                           	
  5186                           l736:
  5187  000D7C                     	line	215
  5188                           	
  5189                           l1823:
  5190  000D7C                     		incf	((c:___fladd@bexp)),c,w
  5191  000D7C  283A               	btfsc	status,2
  5192  000D7E  B4D8               	goto	u1531
  5193  000D80  EFC4  F006         	goto	u1530
  5194  000D84  EFC6  F006         
  5195                           u1531:
  5196  000D88                     	goto	l1827
  5197  000D88  EFD0  F006         u1530:
  5198  000D8C                     	
  5199                           l1825:
  5200  000D8C                     	movf	((c:___fladd@bexp)),c,w
  5201  000D8C  503A               	btfss	status,2
  5202  000D8E  A4D8               	goto	u1541
  5203  000D90  EFCC  F006         	goto	u1540
  5204  000D94  EFCE  F006         u1541:
  5205  000D98                     	goto	l1831
  5206  000D98  EFE6  F006         u1540:
  5207  000D9C                     	goto	l1827
  5208  000D9C  EFD0  F006         	
  5209                           l741:
  5210  000DA0                     	line	216
  5211                           	
  5212                           l1827:
  5213  000DA0                     	movlw	low(0)
  5214  000DA0  0E00               	movwf	((c:___fladd@b)),c
  5215  000DA2  6E28               	movlw	high(0)
  5216  000DA4  0E00               	movwf	((c:___fladd@b+1)),c
  5217  000DA6  6E29               	movlw	low highword(0)
  5218  000DA8  0E00               	movwf	((c:___fladd@b+2)),c
  5219  000DAA  6E2A               	movlw	high highword(0)
  5220  000DAC  0E00               	movwf	((c:___fladd@b+3)),c
  5221  000DAE  6E2B               	line	218
  5222                           	movf	((c:___fladd@bexp)),c,w
  5223  000DB0  503A               	btfss	status,2
  5224  000DB2  A4D8               	goto	u1551
  5225  000DB4  EFDE  F006         	goto	u1550
  5226  000DB8  EFE0  F006         u1551:
  5227  000DBC                     	goto	l1831
  5228  000DBC  EFE6  F006         u1550:
  5229  000DC0                     	line	219
  5230                           	
  5231                           l1829:
  5232  000DC0                     	movlw	low(0)
  5233  000DC0  0E00               	movwf	((c:___fladd@signs)),c
  5234  000DC2  6E38               	goto	l1831
  5235  000DC4  EFE6  F006         	line	220
  5236                           	
  5237                           l742:
  5238  000DC8                     	goto	l1831
  5239  000DC8  EFE6  F006         	line	221
  5240                           	
  5241                           l739:
  5242  000DCC                     	line	225
  5243                           	
  5244                           l1831:
  5245  000DCC                     	
  5246                           	btfss	((c:___fladd@bexp)),c,(0)&7
  5247  000DCC  A03A               	goto	u1561
  5248  000DCE  EFEB  F006         	goto	u1560
  5249  000DD2  EFED  F006         u1561:
  5250  000DD6                     	goto	l1835
  5251  000DD6  EFF0  F006         u1560:
  5252  000DDA                     	line	226
  5253                           	
  5254                           l1833:
  5255  000DDA                     	bsf	(0+(7/8)+0+((c:___fladd@b)+02h)),c,(7)&7
  5256  000DDA  8E2A               	line	227
  5257                           	goto	l1837
  5258  000DDC  EFF3  F006         	line	229
  5259                           	
  5260                           l743:
  5261  000DE0                     	line	230
  5262                           	
  5263                           l1835:
  5264  000DE0                     	bcf	(0+(7/8)+0+((c:___fladd@b)+02h)),c,(7)&7
  5265  000DE0  9E2A               	goto	l1837
  5266  000DE2  EFF3  F006         	line	231
  5267                           	
  5268                           l744:
  5269  000DE6                     	line	232
  5270                           	
  5271                           l1837:
  5272  000DE6                     	bcf	status,0
  5273  000DE6  90D8               	rrcf	((c:___fladd@bexp)),c,w
  5274  000DE8  303A               	movwf	(0+((c:___fladd@b)+03h)),c
  5275  000DEA  6E2B               	line	233
  5276                           	
  5277                           l1839:
  5278  000DEC                     	
  5279                           	btfss	((c:___fladd@signs)),c,(7)&7
  5280  000DEC  AE38               	goto	u1571
  5281  000DEE  EFFB  F006         	goto	u1570
  5282  000DF2  EFFD  F006         u1571:
  5283  000DF6                     	goto	l1843
  5284  000DF6  EF00  F007         u1570:
  5285  000DFA                     	line	234
  5286                           	
  5287                           l1841:
  5288  000DFA                     	bsf	(0+(7/8)+0+((c:___fladd@b)+03h)),c,(7)&7
  5289  000DFA  8E2B               	goto	l1843
  5290  000DFC  EF00  F007         	line	235
  5291                           	
  5292                           l745:
  5293  000E00                     	line	236
  5294                           	
  5295                           l1843:
  5296  000E00                     	movff	(c:___fladd@b),(c:?___fladd)
  5297  000E00  C028  F028         	movff	(c:___fladd@b+1),(c:?___fladd+1)
  5298  000E04  C029  F029         	movff	(c:___fladd@b+2),(c:?___fladd+2)
  5299  000E08  C02A  F02A         	movff	(c:___fladd@b+3),(c:?___fladd+3)
  5300  000E0C  C02B  F02B         	goto	l715
  5301  000E10  EF0A  F007         	
  5302                           l1845:
  5303  000E14                     	line	237
  5304                           	
  5305                           l715:
  5306  000E14                     	return	;funcret
  5307  000E14  0012               	opt stack 0
  5308                           GLOBAL	__end_of___fladd
  5309                           	__end_of___fladd:
  5310  000E16                     	signat	___fladd,8316
  5311                           	global	_MSdelay
  5312                           
  5313 ;; *************** function _MSdelay *****************
  5314 ;; Defined at:
  5315 ;;		line 65 in file "RF_HC05.c"
  5316 ;; Parameters:    Size  Location     Type
  5317 ;;  val             2    0[COMRAM] unsigned int 
  5318 ;; Auto vars:     Size  Location     Type
  5319 ;;  j               2    4[COMRAM] unsigned int 
  5320 ;;  i               2    2[COMRAM] unsigned int 
  5321 ;; Return value:  Size  Location     Type
  5322 ;;                  1    wreg      void 
  5323 ;; Registers used:
  5324 ;;		wreg, status,2, status,0
  5325 ;; Tracked objects:
  5326 ;;		On entry : 0/0
  5327 ;;		On exit  : 0/0
  5328 ;;		Unchanged: 0/0
  5329 ;; Data sizes:     COMRAM   BANK0   BANK1   BANK2   BANK3   BANK4   BANK5   BANK6   BANK7
  5330 ;;      Params:         2       0       0       0       0       0       0       0       0
  5331 ;;      Locals:         4       0       0       0       0       0       0       0       0
  5332 ;;      Temps:          0       0       0       0       0       0       0       0       0
  5333 ;;      Totals:         6       0       0       0       0       0       0       0       0
  5334 ;;Total ram usage:        6 bytes
  5335 ;; Hardware stack levels used:    1
  5336 ;; This function calls:
  5337 ;;		Nothing
  5338 ;; This function is called by:
  5339 ;;		_main
  5340 ;; This function uses a non-reentrant model
  5341 ;;
  5342                           psect	text10,class=CODE,space=0,reloc=2,group=0
  5343                           	file	"RF_HC05.c"
  5344                           	line	65
  5345                           global __ptext10
  5346                           __ptext10:
  5347  0019B8                     psect	text10
  5348                           	file	"RF_HC05.c"
  5349                           	line	65
  5350                           	global	__size_of_MSdelay
  5351                           	__size_of_MSdelay	equ	__end_of_MSdelay-_MSdelay
  5352  0000                     	
  5353                           _MSdelay:
  5354  0019B8                     ;incstack = 0
  5355                           	opt	stack 30
  5356                           	line	68
  5357                           	
  5358                           l2085:
  5359  0019B8                     ;RF_HC05.c: 65: void MSdelay(unsigned int val);RF_HC05.c: 66: {;RF_HC05.c: 67:     unsig
                                 ned int i,j;;RF_HC05.c: 68:     for(i=0;i<=val;i++)
  5360                           	movlw	high(0)
  5361  0019B8  0E00               	movwf	((c:MSdelay@i+1)),c
  5362  0019BA  6E04               	movlw	low(0)
  5363  0019BC  0E00               	movwf	((c:MSdelay@i)),c
  5364  0019BE  6E03               	goto	l2099
  5365  0019C0  EF08  F00D         	
  5366                           l97:
  5367  0019C4                     	line	69
  5368                           	
  5369                           l2087:
  5370  0019C4                     ;RF_HC05.c: 69:     for(j=0;j<81;j++);
  5371                           	movlw	high(0)
  5372  0019C4  0E00               	movwf	((c:MSdelay@j+1)),c
  5373  0019C6  6E06               	movlw	low(0)
  5374  0019C8  0E00               	movwf	((c:MSdelay@j)),c
  5375  0019CA  6E05               	
  5376                           l2089:
  5377  0019CC                     		movf	((c:MSdelay@j+1)),c,w
  5378  0019CC  5006               	bnz	u1980
  5379  0019CE  E109               	movlw	81
  5380  0019D0  0E51               	subwf	 ((c:MSdelay@j)),c,w
  5381  0019D2  5C05               	btfss	status,0
  5382  0019D4  A0D8               	goto	u1981
  5383  0019D6  EFEF  F00C         	goto	u1980
  5384  0019DA  EFF1  F00C         
  5385                           u1981:
  5386  0019DE                     	goto	l2093
  5387  0019DE  EFF5  F00C         u1980:
  5388  0019E2                     	goto	l2097
  5389  0019E2  EF04  F00D         	
  5390                           l2091:
  5391  0019E6                     	goto	l2097
  5392  0019E6  EF04  F00D         	
  5393                           l98:
  5394  0019EA                     	
  5395                           l2093:
  5396  0019EA                     	infsnz	((c:MSdelay@j)),c
  5397  0019EA  4A05               	incf	((c:MSdelay@j+1)),c
  5398  0019EC  2A06               	
  5399                           l2095:
  5400  0019EE                     		movf	((c:MSdelay@j+1)),c,w
  5401  0019EE  5006               	bnz	u1990
  5402  0019F0  E109               	movlw	81
  5403  0019F2  0E51               	subwf	 ((c:MSdelay@j)),c,w
  5404  0019F4  5C05               	btfss	status,0
  5405  0019F6  A0D8               	goto	u1991
  5406  0019F8  EF00  F00D         	goto	u1990
  5407  0019FC  EF02  F00D         
  5408                           u1991:
  5409  001A00                     	goto	l2093
  5410  001A00  EFF5  F00C         u1990:
  5411  001A04                     	goto	l2097
  5412  001A04  EF04  F00D         	
  5413                           l99:
  5414  001A08                     	
  5415                           l2097:
  5416  001A08                     	infsnz	((c:MSdelay@i)),c
  5417  001A08  4A03               	incf	((c:MSdelay@i+1)),c
  5418  001A0A  2A04               	goto	l2099
  5419  001A0C  EF08  F00D         	
  5420                           l96:
  5421  001A10                     	
  5422                           l2099:
  5423  001A10                     		movf	((c:MSdelay@i)),c,w
  5424  001A10  5003               	subwf	((c:MSdelay@val)),c,w
  5425  001A12  5C01               	movf	((c:MSdelay@i+1)),c,w
  5426  001A14  5004               	subwfb	((c:MSdelay@val+1)),c,w
  5427  001A16  5802               	btfsc	status,0
  5428  001A18  B0D8               	goto	u2001
  5429  001A1A  EF11  F00D         	goto	u2000
  5430  001A1E  EF13  F00D         
  5431                           u2001:
  5432  001A22                     	goto	l2087
  5433  001A22  EFE2  F00C         u2000:
  5434  001A26                     	goto	l101
  5435  001A26  EF15  F00D         	
  5436                           l100:
  5437  001A2A                     	line	70
  5438                           	
  5439                           l101:
  5440  001A2A                     	return	;funcret
  5441  001A2A  0012               	opt stack 0
  5442                           GLOBAL	__end_of_MSdelay
  5443                           	__end_of_MSdelay:
  5444  001A2C                     	signat	_MSdelay,4217
  5445                           	global	_LCD_String_xy
  5446                           
  5447 ;; *************** function _LCD_String_xy *****************
  5448 ;; Defined at:
  5449 ;;		line 192 in file "RF_HC05.c"
  5450 ;; Parameters:    Size  Location     Type
  5451 ;;  row             1    wreg     unsigned char 
  5452 ;;  pos             1   10[COMRAM] unsigned char 
  5453 ;;  msg             2   11[COMRAM] PTR const unsigned char 
  5454 ;;		 -> STR_8(18), STR_7(16), STR_6(17), STR_5(11), 
  5455 ;;		 -> STR_3(11), STR_2(9), 
  5456 ;; Auto vars:     Size  Location     Type
  5457 ;;  row             1   13[COMRAM] unsigned char 
  5458 ;;  location        1   14[COMRAM] unsigned char 
  5459 ;; Return value:  Size  Location     Type
  5460 ;;                  1    wreg      void 
  5461 ;; Registers used:
  5462 ;;		wreg, status,2, status,0, tblptrl, tblptrh, tblptru, cstack
  5463 ;; Tracked objects:
  5464 ;;		On entry : 0/0
  5465 ;;		On exit  : 0/0
  5466 ;;		Unchanged: 0/0
  5467 ;; Data sizes:     COMRAM   BANK0   BANK1   BANK2   BANK3   BANK4   BANK5   BANK6   BANK7
  5468 ;;      Params:         3       0       0       0       0       0       0       0       0
  5469 ;;      Locals:         2       0       0       0       0       0       0       0       0
  5470 ;;      Temps:          0       0       0       0       0       0       0       0       0
  5471 ;;      Totals:         5       0       0       0       0       0       0       0       0
  5472 ;;Total ram usage:        5 bytes
  5473 ;; Hardware stack levels used:    1
  5474 ;; Hardware stack levels required when called:    3
  5475 ;; This function calls:
  5476 ;;		_LCD_Command
  5477 ;;		_LCD_String
  5478 ;; This function is called by:
  5479 ;;		_main
  5480 ;; This function uses a non-reentrant model
  5481 ;;
  5482                           psect	text11,class=CODE,space=0,reloc=2,group=0
  5483                           	line	192
  5484                           global __ptext11
  5485                           __ptext11:
  5486  001B38                     psect	text11
  5487                           	file	"RF_HC05.c"
  5488                           	line	192
  5489                           	global	__size_of_LCD_String_xy
  5490                           	__size_of_LCD_String_xy	equ	__end_of_LCD_String_xy-_LCD_String_xy
  5491  0000                     	
  5492                           _LCD_String_xy:
  5493  001B38                     ;incstack = 0
  5494                           	opt	stack 27
  5495                           ;LCD_String_xy@row stored from wreg
  5496                           	movwf	((c:LCD_String_xy@row)),c
  5497  001B38  6E0E               	line	194
  5498                           	
  5499                           l2115:
  5500  001B3A                     ;RF_HC05.c: 192: void LCD_String_xy(char row,char pos,const char *msg);RF_HC05.c: 193: {
                                 ;RF_HC05.c: 194:     char location=0;
  5501                           	movlw	low(0)
  5502  001B3A  0E00               	movwf	((c:LCD_String_xy@location)),c
  5503  001B3C  6E0F               	line	195
  5504                           	
  5505                           l2117:
  5506  001B3E                     ;RF_HC05.c: 195:     if(row<=1)
  5507                           		movlw	02h-0
  5508  001B3E  0E02               	cpfslt	((c:LCD_String_xy@row)),c
  5509  001B40  600E               	goto	u2011
  5510  001B42  EFA5  F00D         	goto	u2010
  5511  001B46  EFA7  F00D         
  5512                           u2011:
  5513  001B4A                     	goto	l2123
  5514  001B4A  EFB0  F00D         u2010:
  5515  001B4E                     	line	197
  5516                           	
  5517                           l2119:
  5518  001B4E                     ;RF_HC05.c: 196:     {;RF_HC05.c: 197:         location=(0x80) | ((pos) & 0x0f);
  5519                           	movf	((c:LCD_String_xy@pos)),c,w
  5520  001B4E  500B               	andlw	low(0Fh)
  5521  001B50  0B0F               	iorlw	low(080h)
  5522  001B52  0980               	movwf	((c:LCD_String_xy@location)),c
  5523  001B54  6E0F               	line	198
  5524                           	
  5525                           l2121:
  5526  001B56                     ;RF_HC05.c: 198:         LCD_Command(location);
  5527                           	movf	((c:LCD_String_xy@location)),c,w
  5528  001B56  500F               	
  5529                           	call	_LCD_Command
  5530  001B58  EC76  F00D         	line	199
  5531                           ;RF_HC05.c: 199:     }
  5532                           	goto	l2127
  5533  001B5C  EFB9  F00D         	line	200
  5534                           ;RF_HC05.c: 200:     else
  5535                           	
  5536                           l131:
  5537  001B60                     	line	202
  5538                           	
  5539                           l2123:
  5540  001B60                     ;RF_HC05.c: 201:     {;RF_HC05.c: 202:         location=(0xC0) | ((pos) & 0x0f);
  5541                           	movf	((c:LCD_String_xy@pos)),c,w
  5542  001B60  500B               	andlw	low(0Fh)
  5543  001B62  0B0F               	iorlw	low(0C0h)
  5544  001B64  09C0               	movwf	((c:LCD_String_xy@location)),c
  5545  001B66  6E0F               	line	203
  5546                           	
  5547                           l2125:
  5548  001B68                     ;RF_HC05.c: 203:         LCD_Command(location);
  5549                           	movf	((c:LCD_String_xy@location)),c,w
  5550  001B68  500F               	
  5551                           	call	_LCD_Command
  5552  001B6A  EC76  F00D         	goto	l2127
  5553  001B6E  EFB9  F00D         	line	204
  5554                           ;RF_HC05.c: 204:     }
  5555                           	
  5556                           l132:
  5557  001B72                     	line	207
  5558                           	
  5559                           l2127:
  5560  001B72                     ;RF_HC05.c: 207:     LCD_String(msg);
  5561                           		movff	(c:LCD_String_xy@msg),(c:LCD_String@msg)
  5562  001B72  C00C  F009         	movff	(c:LCD_String_xy@msg+1),(c:LCD_String@msg+1)
  5563  001B76  C00D  F00A         
  5564                           	call	_LCD_String	;wreg free
  5565  001B7A  ECDF  F00D         	line	209
  5566                           	
  5567                           l133:
  5568  001B7E                     	return	;funcret
  5569  001B7E  0012               	opt stack 0
  5570                           GLOBAL	__end_of_LCD_String_xy
  5571                           	__end_of_LCD_String_xy:
  5572  001B80                     	signat	_LCD_String_xy,12409
  5573                           	global	_LCD_String
  5574                           
  5575 ;; *************** function _LCD_String *****************
  5576 ;; Defined at:
  5577 ;;		line 183 in file "RF_HC05.c"
  5578 ;; Parameters:    Size  Location     Type
  5579 ;;  msg             2    8[COMRAM] PTR const unsigned char 
  5580 ;;		 -> STR_8(18), STR_7(16), STR_6(17), STR_5(11), 
  5581 ;;		 -> STR_3(11), STR_2(9), 
  5582 ;; Auto vars:     Size  Location     Type
  5583 ;;		None
  5584 ;; Return value:  Size  Location     Type
  5585 ;;                  1    wreg      void 
  5586 ;; Registers used:
  5587 ;;		wreg, status,2, status,0, tblptrl, tblptrh, tblptru, cstack
  5588 ;; Tracked objects:
  5589 ;;		On entry : 0/0
  5590 ;;		On exit  : 0/0
  5591 ;;		Unchanged: 0/0
  5592 ;; Data sizes:     COMRAM   BANK0   BANK1   BANK2   BANK3   BANK4   BANK5   BANK6   BANK7
  5593 ;;      Params:         2       0       0       0       0       0       0       0       0
  5594 ;;      Locals:         0       0       0       0       0       0       0       0       0
  5595 ;;      Temps:          0       0       0       0       0       0       0       0       0
  5596 ;;      Totals:         2       0       0       0       0       0       0       0       0
  5597 ;;Total ram usage:        2 bytes
  5598 ;; Hardware stack levels used:    1
  5599 ;; Hardware stack levels required when called:    2
  5600 ;; This function calls:
  5601 ;;		_LCD_Char
  5602 ;; This function is called by:
  5603 ;;		_LCD_String_xy
  5604 ;; This function uses a non-reentrant model
  5605 ;;
  5606                           psect	text12,class=CODE,space=0,reloc=2,group=0
  5607                           	line	183
  5608                           global __ptext12
  5609                           __ptext12:
  5610  001BBE                     psect	text12
  5611                           	file	"RF_HC05.c"
  5612                           	line	183
  5613                           	global	__size_of_LCD_String
  5614                           	__size_of_LCD_String	equ	__end_of_LCD_String-_LCD_String
  5615  0000                     	
  5616                           _LCD_String:
  5617  001BBE                     ;incstack = 0
  5618                           	opt	stack 27
  5619                           	line	185
  5620                           	
  5621                           l1617:
  5622  001BBE                     ;RF_HC05.c: 183: void LCD_String(const char *msg);RF_HC05.c: 184: {;RF_HC05.c: 185:  whi
                                 le((*msg)!=0)
  5623                           	goto	l1623
  5624  001BBE  EFED  F00D         	
  5625                           l126:
  5626  001BC2                     	line	187
  5627                           	
  5628                           l1619:
  5629  001BC2                     ;RF_HC05.c: 186:  {;RF_HC05.c: 187:    LCD_Char(*msg);
  5630                           	movff	(c:LCD_String@msg),tblptrl
  5631  001BC2  C009  FFF6         	movff	(c:LCD_String@msg+1),tblptrh
  5632  001BC6  C00A  FFF7         	if	0	;tblptru may be non-zero
  5633  001BCA                     	clrf	tblptru
  5635  001BCA                     	if	0	;tblptru may be non-zero
  5636  001BCA                     	global __mediumconst
  5637                           movlw	low highword(__mediumconst)
  5640  001BCA                     	tblrd	*
  5641  001BCA  0008               	
  5642                           	movf	tablat,w
  5643  001BCC  50F5               	
  5644                           	call	_LCD_Char
  5645  001BCE  EC50  F00D         	line	188
  5646                           	
  5647                           l1621:
  5648  001BD2                     ;RF_HC05.c: 188:    msg++;
  5649                           	infsnz	((c:LCD_String@msg)),c
  5650  001BD2  4A09               	incf	((c:LCD_String@msg+1)),c
  5651  001BD4  2A0A               	goto	l1623
  5652  001BD6  EFED  F00D         	line	189
  5653                           ;RF_HC05.c: 189:     }
  5654                           	
  5655                           l125:
  5656  001BDA                     	line	185
  5657                           	
  5658                           l1623:
  5659  001BDA                     ;RF_HC05.c: 185:  while((*msg)!=0)
  5660                           	movff	(c:LCD_String@msg),tblptrl
  5661  001BDA  C009  FFF6         	movff	(c:LCD_String@msg+1),tblptrh
  5662  001BDE  C00A  FFF7         	if	0	;tblptru may be non-zero
  5663  001BE2                     	clrf	tblptru
  5665  001BE2                     	if	0	;tblptru may be non-zero
  5666  001BE2                     	global __mediumconst
  5667                           movlw	low highword(__mediumconst)
  5670  001BE2                     	tblrd	*
  5671  001BE2  0008               	
  5672                           	movf	tablat,w
  5673  001BE4  50F5               	iorlw	0
  5674  001BE6  0900               	btfss	status,2
  5675  001BE8  A4D8               	goto	u1131
  5676  001BEA  EFF9  F00D         	goto	u1130
  5677  001BEE  EFFB  F00D         u1131:
  5678  001BF2                     	goto	l1619
  5679  001BF2  EFE1  F00D         u1130:
  5680  001BF6                     	goto	l128
  5681  001BF6  EFFD  F00D         	
  5682                           l127:
  5683  001BFA                     	line	190
  5684                           	
  5685                           l128:
  5686  001BFA                     	return	;funcret
  5687  001BFA  0012               	opt stack 0
  5688                           GLOBAL	__end_of_LCD_String
  5689                           	__end_of_LCD_String:
  5690  001BFC                     	signat	_LCD_String,4217
  5691                           	global	_LCD_Char
  5692                           
  5693 ;; *************** function _LCD_Char *****************
  5694 ;; Defined at:
  5695 ;;		line 169 in file "RF_HC05.c"
  5696 ;; Parameters:    Size  Location     Type
  5697 ;;  dat             1    wreg     unsigned char 
  5698 ;; Auto vars:     Size  Location     Type
  5699 ;;  dat             1    7[COMRAM] unsigned char 
  5700 ;; Return value:  Size  Location     Type
  5701 ;;                  1    wreg      void 
  5702 ;; Registers used:
  5703 ;;		wreg, status,2, status,0, cstack
  5704 ;; Tracked objects:
  5705 ;;		On entry : 0/0
  5706 ;;		On exit  : 0/0
  5707 ;;		Unchanged: 0/0
  5708 ;; Data sizes:     COMRAM   BANK0   BANK1   BANK2   BANK3   BANK4   BANK5   BANK6   BANK7
  5709 ;;      Params:         0       0       0       0       0       0       0       0       0
  5710 ;;      Locals:         1       0       0       0       0       0       0       0       0
  5711 ;;      Temps:          1       0       0       0       0       0       0       0       0
  5712 ;;      Totals:         2       0       0       0       0       0       0       0       0
  5713 ;;Total ram usage:        2 bytes
  5714 ;; Hardware stack levels used:    1
  5715 ;; Hardware stack levels required when called:    1
  5716 ;; This function calls:
  5717 ;;		_MSdelay_L
  5718 ;; This function is called by:
  5719 ;;		_LCD_String
  5720 ;; This function uses a non-reentrant model
  5721 ;;
  5722                           psect	text13,class=CODE,space=0,reloc=2,group=0
  5723                           	line	169
  5724                           global __ptext13
  5725                           __ptext13:
  5726  001AA0                     psect	text13
  5727                           	file	"RF_HC05.c"
  5728                           	line	169
  5729                           	global	__size_of_LCD_Char
  5730                           	__size_of_LCD_Char	equ	__end_of_LCD_Char-_LCD_Char
  5731  0000                     	
  5732                           _LCD_Char:
  5733  001AA0                     ;incstack = 0
  5734                           	opt	stack 27
  5735                           ;LCD_Char@dat stored from wreg
  5736                           	movwf	((c:LCD_Char@dat)),c
  5737  001AA0  6E08               	line	171
  5738                           	
  5739                           l1569:
  5740  001AA2                     ;RF_HC05.c: 169: void LCD_Char(unsigned char dat);RF_HC05.c: 170: {;RF_HC05.c: 171:  LAT
                                 B = (LATB & 0x0f) | (0xF0 & dat);
  5741                           	movff	(c:LCD_Char@dat),??_LCD_Char+0+0
  5742  001AA2  C008  F007         	movlw	0F0h
  5743  001AA6  0EF0               	andwf	(??_LCD_Char+0+0),c
  5744  001AA8  1607               	movf	((c:3978)),c,w	;volatile
  5745  001AAA  508A               	andlw	low(0Fh)
  5746  001AAC  0B0F               	iorwf	(??_LCD_Char+0+0),c,w
  5747  001AAE  1007               	movwf	((c:3978)),c	;volatile
  5748  001AB0  6E8A               	line	172
  5749                           	
  5750                           l1571:
  5751  001AB2                     ;RF_HC05.c: 172:  LATB0 = 1;
  5752                           	bsf	c:(31824/8),(31824)&7	;volatile
  5753  001AB2  808A               	line	173
  5754                           	
  5755                           l1573:
  5756  001AB4                     ;RF_HC05.c: 173:  LATB1 = 1;
  5757                           	bsf	c:(31825/8),(31825)&7	;volatile
  5758  001AB4  828A               	line	174
  5759                           	
  5760                           l1575:
  5761  001AB6                     ;RF_HC05.c: 174:  __nop();
  5762                           	opt	asmopt_push
  5763                           	opt	asmopt_off
  5764                           	nop
  5765  001AB6  F000               	opt	asmopt_pop
  5766                           	line	175
  5767                           	
  5768                           l1577:
  5769  001AB8                     ;RF_HC05.c: 175:  LATB1 = 0;
  5770                           	bcf	c:(31825/8),(31825)&7	;volatile
  5771  001AB8  928A               	line	176
  5772                           	
  5773                           l1579:
  5774  001ABA                     ;RF_HC05.c: 176:  MSdelay_L(1);
  5775                           	movlw	high(01h)
  5776  001ABA  0E00               	movwf	((c:MSdelay_L@val+1)),c
  5777  001ABC  6E02               	movlw	low(01h)
  5778  001ABE  0E01               	movwf	((c:MSdelay_L@val)),c
  5779  001AC0  6E01               	call	_MSdelay_L	;wreg free
  5780  001AC2  EC16  F00D         	line	177
  5781                           	
  5782                           l1581:
  5783  001AC6                     ;RF_HC05.c: 177:     LATB = (LATB & 0x0f) | (dat<<4);
  5784                           	movff	(c:LCD_Char@dat),??_LCD_Char+0+0
  5785  001AC6  C008  F007         	swapf	(??_LCD_Char+0+0),c
  5786  001ACA  3A07               	movlw	(0ffh shl 4) & 0ffh
  5787  001ACC  0EF0               	andwf	(??_LCD_Char+0+0),c
  5788  001ACE  1607               	movf	((c:3978)),c,w	;volatile
  5789  001AD0  508A               	andlw	low(0Fh)
  5790  001AD2  0B0F               	iorwf	(??_LCD_Char+0+0),c,w
  5791  001AD4  1007               	movwf	((c:3978)),c	;volatile
  5792  001AD6  6E8A               	line	178
  5793                           	
  5794                           l1583:
  5795  001AD8                     ;RF_HC05.c: 178:  LATB1 = 1;
  5796                           	bsf	c:(31825/8),(31825)&7	;volatile
  5797  001AD8  828A               	line	179
  5798                           	
  5799                           l1585:
  5800  001ADA                     ;RF_HC05.c: 179:  __nop();
  5801                           	opt	asmopt_push
  5802                           	opt	asmopt_off
  5803                           	nop
  5804  001ADA  F000               	opt	asmopt_pop
  5805                           	line	180
  5806                           	
  5807                           l1587:
  5808  001ADC                     ;RF_HC05.c: 180:  LATB1 = 0;
  5809                           	bcf	c:(31825/8),(31825)&7	;volatile
  5810  001ADC  928A               	line	181
  5811                           ;RF_HC05.c: 181:  MSdelay_L(3);
  5812                           	movlw	high(03h)
  5813  001ADE  0E00               	movwf	((c:MSdelay_L@val+1)),c
  5814  001AE0  6E02               	movlw	low(03h)
  5815  001AE2  0E03               	movwf	((c:MSdelay_L@val)),c
  5816  001AE4  6E01               	call	_MSdelay_L	;wreg free
  5817  001AE6  EC16  F00D         	line	182
  5818                           	
  5819                           l122:
  5820  001AEA                     	return	;funcret
  5821  001AEA  0012               	opt stack 0
  5822                           GLOBAL	__end_of_LCD_Char
  5823                           	__end_of_LCD_Char:
  5824  001AEC                     	signat	_LCD_Char,4217
  5825                           	global	_LCD_Init
  5826                           
  5827 ;; *************** function _LCD_Init *****************
  5828 ;; Defined at:
  5829 ;;		line 140 in file "RF_HC05.c"
  5830 ;; Parameters:    Size  Location     Type
  5831 ;;		None
  5832 ;; Auto vars:     Size  Location     Type
  5833 ;;		None
  5834 ;; Return value:  Size  Location     Type
  5835 ;;                  1    wreg      void 
  5836 ;; Registers used:
  5837 ;;		wreg, status,2, status,0, cstack
  5838 ;; Tracked objects:
  5839 ;;		On entry : 0/0
  5840 ;;		On exit  : 0/0
  5841 ;;		Unchanged: 0/0
  5842 ;; Data sizes:     COMRAM   BANK0   BANK1   BANK2   BANK3   BANK4   BANK5   BANK6   BANK7
  5843 ;;      Params:         0       0       0       0       0       0       0       0       0
  5844 ;;      Locals:         0       0       0       0       0       0       0       0       0
  5845 ;;      Temps:          0       0       0       0       0       0       0       0       0
  5846 ;;      Totals:         0       0       0       0       0       0       0       0       0
  5847 ;;Total ram usage:        0 bytes
  5848 ;; Hardware stack levels used:    1
  5849 ;; Hardware stack levels required when called:    2
  5850 ;; This function calls:
  5851 ;;		_LCD_Command
  5852 ;;		_MSdelay_L
  5853 ;; This function is called by:
  5854 ;;		_main
  5855 ;; This function uses a non-reentrant model
  5856 ;;
  5857                           psect	text14,class=CODE,space=0,reloc=2,group=0
  5858                           	line	140
  5859                           global __ptext14
  5860                           __ptext14:
  5861  001BFC                     psect	text14
  5862                           	file	"RF_HC05.c"
  5863                           	line	140
  5864                           	global	__size_of_LCD_Init
  5865                           	__size_of_LCD_Init	equ	__end_of_LCD_Init-_LCD_Init
  5866  0000                     	
  5867                           _LCD_Init:
  5868  001BFC                     ;incstack = 0
  5869                           	opt	stack 28
  5870                           	line	142
  5871                           	
  5872                           l2101:
  5873  001BFC                     ;RF_HC05.c: 142:     TRISB = 0;
  5874                           	movlw	low(0)
  5875  001BFC  0E00               	movwf	((c:3987)),c	;volatile
  5876  001BFE  6E93               	line	143
  5877                           	
  5878                           l2103:
  5879  001C00                     ;RF_HC05.c: 143:     MSdelay_L(15);
  5880                           	movlw	high(0Fh)
  5881  001C00  0E00               	movwf	((c:MSdelay_L@val+1)),c
  5882  001C02  6E02               	movlw	low(0Fh)
  5883  001C04  0E0F               	movwf	((c:MSdelay_L@val)),c
  5884  001C06  6E01               	call	_MSdelay_L	;wreg free
  5885  001C08  EC16  F00D         	line	144
  5886                           	
  5887                           l2105:
  5888  001C0C                     ;RF_HC05.c: 144:     LCD_Command(0x02);
  5889                           	movlw	(02h)&0ffh
  5890  001C0C  0E02               	
  5891                           	call	_LCD_Command
  5892  001C0E  EC76  F00D         	line	146
  5893                           	
  5894                           l2107:
  5895  001C12                     ;RF_HC05.c: 146:     LCD_Command(0x28);
  5896                           	movlw	(028h)&0ffh
  5897  001C12  0E28               	
  5898                           	call	_LCD_Command
  5899  001C14  EC76  F00D         	line	148
  5900                           	
  5901                           l2109:
  5902  001C18                     ;RF_HC05.c: 148:  LCD_Command(0x01);
  5903                           	movlw	(01h)&0ffh
  5904  001C18  0E01               	
  5905                           	call	_LCD_Command
  5906  001C1A  EC76  F00D         	line	149
  5907                           	
  5908                           l2111:
  5909  001C1E                     ;RF_HC05.c: 149:     LCD_Command(0x0c);
  5910                           	movlw	(0Ch)&0ffh
  5911  001C1E  0E0C               	
  5912                           	call	_LCD_Command
  5913  001C20  EC76  F00D         	line	150
  5914                           	
  5915                           l2113:
  5916  001C24                     ;RF_HC05.c: 150:  LCD_Command(0x06);
  5917                           	movlw	(06h)&0ffh
  5918  001C24  0E06               	
  5919                           	call	_LCD_Command
  5920  001C26  EC76  F00D         	line	151
  5921                           	
  5922                           l116:
  5923  001C2A                     	return	;funcret
  5924  001C2A  0012               	opt stack 0
  5925                           GLOBAL	__end_of_LCD_Init
  5926                           	__end_of_LCD_Init:
  5927  001C2C                     	signat	_LCD_Init,89
  5928                           	global	_LCD_Command
  5929                           
  5930 ;; *************** function _LCD_Command *****************
  5931 ;; Defined at:
  5932 ;;		line 153 in file "RF_HC05.c"
  5933 ;; Parameters:    Size  Location     Type
  5934 ;;  cmd             1    wreg     unsigned char 
  5935 ;; Auto vars:     Size  Location     Type
  5936 ;;  cmd             1    7[COMRAM] unsigned char 
  5937 ;; Return value:  Size  Location     Type
  5938 ;;                  1    wreg      void 
  5939 ;; Registers used:
  5940 ;;		wreg, status,2, status,0, cstack
  5941 ;; Tracked objects:
  5942 ;;		On entry : 0/0
  5943 ;;		On exit  : 0/0
  5944 ;;		Unchanged: 0/0
  5945 ;; Data sizes:     COMRAM   BANK0   BANK1   BANK2   BANK3   BANK4   BANK5   BANK6   BANK7
  5946 ;;      Params:         0       0       0       0       0       0       0       0       0
  5947 ;;      Locals:         1       0       0       0       0       0       0       0       0
  5948 ;;      Temps:          1       0       0       0       0       0       0       0       0
  5949 ;;      Totals:         2       0       0       0       0       0       0       0       0
  5950 ;;Total ram usage:        2 bytes
  5951 ;; Hardware stack levels used:    1
  5952 ;; Hardware stack levels required when called:    1
  5953 ;; This function calls:
  5954 ;;		_MSdelay_L
  5955 ;; This function is called by:
  5956 ;;		_LCD_Init
  5957 ;;		_LCD_String_xy
  5958 ;;		_LCD_Clear
  5959 ;; This function uses a non-reentrant model
  5960 ;;
  5961                           psect	text15,class=CODE,space=0,reloc=2,group=0
  5962                           	line	153
  5963                           global __ptext15
  5964                           __ptext15:
  5965  001AEC                     psect	text15
  5966                           	file	"RF_HC05.c"
  5967                           	line	153
  5968                           	global	__size_of_LCD_Command
  5969                           	__size_of_LCD_Command	equ	__end_of_LCD_Command-_LCD_Command
  5970  0000                     	
  5971                           _LCD_Command:
  5972  001AEC                     ;incstack = 0
  5973                           	opt	stack 28
  5974                           ;LCD_Command@cmd stored from wreg
  5975                           	movwf	((c:LCD_Command@cmd)),c
  5976  001AEC  6E08               	line	155
  5977                           	
  5978                           l1597:
  5979  001AEE                     ;RF_HC05.c: 153: void LCD_Command(unsigned char cmd );RF_HC05.c: 154: {;RF_HC05.c: 155: 
                                  LATB = (LATB & 0x0f) |(0xF0 & cmd);
  5980                           	movff	(c:LCD_Command@cmd),??_LCD_Command+0+0
  5981  001AEE  C008  F007         	movlw	0F0h
  5982  001AF2  0EF0               	andwf	(??_LCD_Command+0+0),c
  5983  001AF4  1607               	movf	((c:3978)),c,w	;volatile
  5984  001AF6  508A               	andlw	low(0Fh)
  5985  001AF8  0B0F               	iorwf	(??_LCD_Command+0+0),c,w
  5986  001AFA  1007               	movwf	((c:3978)),c	;volatile
  5987  001AFC  6E8A               	line	156
  5988                           	
  5989                           l1599:
  5990  001AFE                     ;RF_HC05.c: 156:  LATB0 = 0;
  5991                           	bcf	c:(31824/8),(31824)&7	;volatile
  5992  001AFE  908A               	line	157
  5993                           	
  5994                           l1601:
  5995  001B00                     ;RF_HC05.c: 157:  LATB1 = 1;
  5996                           	bsf	c:(31825/8),(31825)&7	;volatile
  5997  001B00  828A               	line	158
  5998                           	
  5999                           l1603:
  6000  001B02                     ;RF_HC05.c: 158:  __nop();
  6001                           	opt	asmopt_push
  6002                           	opt	asmopt_off
  6003                           	nop
  6004  001B02  F000               	opt	asmopt_pop
  6005                           	line	159
  6006                           	
  6007                           l1605:
  6008  001B04                     ;RF_HC05.c: 159:  LATB1 = 0;
  6009                           	bcf	c:(31825/8),(31825)&7	;volatile
  6010  001B04  928A               	line	160
  6011                           	
  6012                           l1607:
  6013  001B06                     ;RF_HC05.c: 160:  MSdelay_L(1);
  6014                           	movlw	high(01h)
  6015  001B06  0E00               	movwf	((c:MSdelay_L@val+1)),c
  6016  001B08  6E02               	movlw	low(01h)
  6017  001B0A  0E01               	movwf	((c:MSdelay_L@val)),c
  6018  001B0C  6E01               	call	_MSdelay_L	;wreg free
  6019  001B0E  EC16  F00D         	line	161
  6020                           	
  6021                           l1609:
  6022  001B12                     ;RF_HC05.c: 161:     LATB = (LATB & 0x0f) | (cmd<<4);
  6023                           	movff	(c:LCD_Command@cmd),??_LCD_Command+0+0
  6024  001B12  C008  F007         	swapf	(??_LCD_Command+0+0),c
  6025  001B16  3A07               	movlw	(0ffh shl 4) & 0ffh
  6026  001B18  0EF0               	andwf	(??_LCD_Command+0+0),c
  6027  001B1A  1607               	movf	((c:3978)),c,w	;volatile
  6028  001B1C  508A               	andlw	low(0Fh)
  6029  001B1E  0B0F               	iorwf	(??_LCD_Command+0+0),c,w
  6030  001B20  1007               	movwf	((c:3978)),c	;volatile
  6031  001B22  6E8A               	line	162
  6032                           	
  6033                           l1611:
  6034  001B24                     ;RF_HC05.c: 162:  LATB1 = 1;
  6035                           	bsf	c:(31825/8),(31825)&7	;volatile
  6036  001B24  828A               	line	163
  6037                           	
  6038                           l1613:
  6039  001B26                     ;RF_HC05.c: 163:  __nop();
  6040                           	opt	asmopt_push
  6041                           	opt	asmopt_off
  6042                           	nop
  6043  001B26  F000               	opt	asmopt_pop
  6044                           	line	164
  6045                           	
  6046                           l1615:
  6047  001B28                     ;RF_HC05.c: 164:  LATB1 = 0;
  6048                           	bcf	c:(31825/8),(31825)&7	;volatile
  6049  001B28  928A               	line	165
  6050                           ;RF_HC05.c: 165:  MSdelay_L(3);
  6051                           	movlw	high(03h)
  6052  001B2A  0E00               	movwf	((c:MSdelay_L@val+1)),c
  6053  001B2C  6E02               	movlw	low(03h)
  6054  001B2E  0E03               	movwf	((c:MSdelay_L@val)),c
  6055  001B30  6E01               	call	_MSdelay_L	;wreg free
  6056  001B32  EC16  F00D         	line	166
  6057                           	
  6058                           l119:
  6059  001B36                     	return	;funcret
  6060  001B36  0012               	opt stack 0
  6061                           GLOBAL	__end_of_LCD_Command
  6062                           	__end_of_LCD_Command:
  6063  001B38                     	signat	_LCD_Command,4217
  6064                           	global	_MSdelay_L
  6065                           
  6066 ;; *************** function _MSdelay_L *****************
  6067 ;; Defined at:
  6068 ;;		line 215 in file "RF_HC05.c"
  6069 ;; Parameters:    Size  Location     Type
  6070 ;;  val             2    0[COMRAM] unsigned int 
  6071 ;; Auto vars:     Size  Location     Type
  6072 ;;  j               2    4[COMRAM] unsigned int 
  6073 ;;  i               2    2[COMRAM] unsigned int 
  6074 ;; Return value:  Size  Location     Type
  6075 ;;                  1    wreg      void 
  6076 ;; Registers used:
  6077 ;;		wreg, status,2, status,0
  6078 ;; Tracked objects:
  6079 ;;		On entry : 0/0
  6080 ;;		On exit  : 0/0
  6081 ;;		Unchanged: 0/0
  6082 ;; Data sizes:     COMRAM   BANK0   BANK1   BANK2   BANK3   BANK4   BANK5   BANK6   BANK7
  6083 ;;      Params:         2       0       0       0       0       0       0       0       0
  6084 ;;      Locals:         4       0       0       0       0       0       0       0       0
  6085 ;;      Temps:          0       0       0       0       0       0       0       0       0
  6086 ;;      Totals:         6       0       0       0       0       0       0       0       0
  6087 ;;Total ram usage:        6 bytes
  6088 ;; Hardware stack levels used:    1
  6089 ;; This function calls:
  6090 ;;		Nothing
  6091 ;; This function is called by:
  6092 ;;		_LCD_Init
  6093 ;;		_LCD_Command
  6094 ;;		_LCD_Char
  6095 ;; This function uses a non-reentrant model
  6096 ;;
  6097                           psect	text16,class=CODE,space=0,reloc=2,group=0
  6098                           	line	215
  6099                           global __ptext16
  6100                           __ptext16:
  6101  001A2C                     psect	text16
  6102                           	file	"RF_HC05.c"
  6103                           	line	215
  6104                           	global	__size_of_MSdelay_L
  6105                           	__size_of_MSdelay_L	equ	__end_of_MSdelay_L-_MSdelay_L
  6106  0000                     	
  6107                           _MSdelay_L:
  6108  001A2C                     ;incstack = 0
  6109                           	opt	stack 27
  6110                           	line	218
  6111                           	
  6112                           l1553:
  6113  001A2C                     ;RF_HC05.c: 215: void MSdelay_L(unsigned int val);RF_HC05.c: 216: {;RF_HC05.c: 217:  uns
                                 igned int i,j;;RF_HC05.c: 218:  for(i=0;i<=val;i++)
  6114                           	movlw	high(0)
  6115  001A2C  0E00               	movwf	((c:MSdelay_L@i+1)),c
  6116  001A2E  6E04               	movlw	low(0)
  6117  001A30  0E00               	movwf	((c:MSdelay_L@i)),c
  6118  001A32  6E03               	goto	l1567
  6119  001A34  EF42  F00D         	
  6120                           l140:
  6121  001A38                     	line	219
  6122                           	
  6123                           l1555:
  6124  001A38                     ;RF_HC05.c: 219:      for(j=0;j<81;j++);
  6125                           	movlw	high(0)
  6126  001A38  0E00               	movwf	((c:MSdelay_L@j+1)),c
  6127  001A3A  6E06               	movlw	low(0)
  6128  001A3C  0E00               	movwf	((c:MSdelay_L@j)),c
  6129  001A3E  6E05               	
  6130                           l1557:
  6131  001A40                     		movf	((c:MSdelay_L@j+1)),c,w
  6132  001A40  5006               	bnz	u1090
  6133  001A42  E109               	movlw	81
  6134  001A44  0E51               	subwf	 ((c:MSdelay_L@j)),c,w
  6135  001A46  5C05               	btfss	status,0
  6136  001A48  A0D8               	goto	u1091
  6137  001A4A  EF29  F00D         	goto	u1090
  6138  001A4E  EF2B  F00D         
  6139                           u1091:
  6140  001A52                     	goto	l1561
  6141  001A52  EF2F  F00D         u1090:
  6142  001A56                     	goto	l1565
  6143  001A56  EF3E  F00D         	
  6144                           l1559:
  6145  001A5A                     	goto	l1565
  6146  001A5A  EF3E  F00D         	
  6147                           l141:
  6148  001A5E                     	
  6149                           l1561:
  6150  001A5E                     	infsnz	((c:MSdelay_L@j)),c
  6151  001A5E  4A05               	incf	((c:MSdelay_L@j+1)),c
  6152  001A60  2A06               	
  6153                           l1563:
  6154  001A62                     		movf	((c:MSdelay_L@j+1)),c,w
  6155  001A62  5006               	bnz	u1100
  6156  001A64  E109               	movlw	81
  6157  001A66  0E51               	subwf	 ((c:MSdelay_L@j)),c,w
  6158  001A68  5C05               	btfss	status,0
  6159  001A6A  A0D8               	goto	u1101
  6160  001A6C  EF3A  F00D         	goto	u1100
  6161  001A70  EF3C  F00D         
  6162                           u1101:
  6163  001A74                     	goto	l1561
  6164  001A74  EF2F  F00D         u1100:
  6165  001A78                     	goto	l1565
  6166  001A78  EF3E  F00D         	
  6167                           l142:
  6168  001A7C                     	
  6169                           l1565:
  6170  001A7C                     	infsnz	((c:MSdelay_L@i)),c
  6171  001A7C  4A03               	incf	((c:MSdelay_L@i+1)),c
  6172  001A7E  2A04               	goto	l1567
  6173  001A80  EF42  F00D         	
  6174                           l139:
  6175  001A84                     	
  6176                           l1567:
  6177  001A84                     		movf	((c:MSdelay_L@i)),c,w
  6178  001A84  5003               	subwf	((c:MSdelay_L@val)),c,w
  6179  001A86  5C01               	movf	((c:MSdelay_L@i+1)),c,w
  6180  001A88  5004               	subwfb	((c:MSdelay_L@val+1)),c,w
  6181  001A8A  5802               	btfsc	status,0
  6182  001A8C  B0D8               	goto	u1111
  6183  001A8E  EF4B  F00D         	goto	u1110
  6184  001A92  EF4D  F00D         
  6185                           u1111:
  6186  001A96                     	goto	l1555
  6187  001A96  EF1C  F00D         u1110:
  6188  001A9A                     	goto	l144
  6189  001A9A  EF4F  F00D         	
  6190                           l143:
  6191  001A9E                     	line	220
  6192                           	
  6193                           l144:
  6194  001A9E                     	return	;funcret
  6195  001A9E  0012               	opt stack 0
  6196                           GLOBAL	__end_of_MSdelay_L
  6197                           	__end_of_MSdelay_L:
  6198  001AA0                     	signat	_MSdelay_L,4217
  6199                           psect	smallconst
  6200                           	db 0	; dummy byte at the end
  6201  000890  00                 	global	__smallconst
  6202                           	global	__mediumconst
  6203                           	GLOBAL	__activetblptr
  6204                           __activetblptr	EQU	1
  6205  0000                     	psect	intsave_regs,class=BIGRAM,space=1,noexec
  6206                           	PSECT	rparam,class=COMRAM,space=1,noexec
  6207                           	GLOBAL	__Lrparam
  6208                           	FNCONF	rparam,??,?
  6209                           	GLOBAL	___rparam_used
  6210                           	___rparam_used EQU 1
  6211  0000                     	GLOBAL	___param_bank
  6212                           	___param_bank EQU 0
  6213  0000                     GLOBAL	__Lparam, __Hparam
  6214                           GLOBAL	__Lrparam, __Hrparam
  6215                           __Lparam	EQU	__Lrparam
  6216  0000                     __Hparam	EQU	__Hrparam
  6217  0000                     	end


Data Sizes:
    Strings     143
    Constant    0
    Data        1
    BSS         4
    Persistent  0
    Stack       0

Auto Spaces:
    Space          Size  Autos    Used
    COMRAM           95     67      72
    BANK0           160      0       0
    BANK1           256      0       0
    BANK2           256      0       0
    BANK3           256      0       0
    BANK4           256      0       0
    BANK5           256      0       0
    BANK6           256      0       0
    BANK7           256      0       0

Pointer List with Targets:

    LCD_String_xy@msg	PTR const unsigned char  size(2) Largest target is 18
		 -> STR_8(CODE[18]), STR_7(CODE[16]), STR_6(CODE[17]), STR_5(CODE[11]), 
		 -> STR_3(CODE[11]), STR_2(CODE[9]), 

    LCD_String@msg	PTR const unsigned char  size(2) Largest target is 18
		 -> STR_8(CODE[18]), STR_7(CODE[16]), STR_6(CODE[17]), STR_5(CODE[11]), 
		 -> STR_3(CODE[11]), STR_2(CODE[9]), 

    USART_SendString@out	PTR const unsigned char  size(2) Largest target is 14
		 -> STR_13(CODE[7]), STR_12(CODE[8]), STR_11(CODE[7]), STR_10(CODE[10]), 
		 -> STR_9(CODE[7]), STR_4(CODE[14]), STR_1(CODE[8]), 


Critical Paths under _main in COMRAM

    _main->_USART_Init
    _bluetoothint->_USART_SendString
    _USART_SendString->_USART_TransmitChar
    _USART_Init->___fladd
    ___fldiv->___xxtofl
    ___fladd->___fldiv
    _LCD_String_xy->_LCD_String
    _LCD_String->_LCD_Char
    _LCD_Char->_MSdelay_L
    _LCD_Init->_LCD_Command
    _LCD_Command->_MSdelay_L

Critical Paths under _main in BANK0

    None.

Critical Paths under _main in BANK1

    None.

Critical Paths under _main in BANK2

    None.

Critical Paths under _main in BANK3

    None.

Critical Paths under _main in BANK4

    None.

Critical Paths under _main in BANK5

    None.

Critical Paths under _main in BANK6

    None.

Critical Paths under _main in BANK7

    None.

Call Graph Tables:

 ---------------------------------------------------------------------------------
 (Depth) Function   	        Calls       Base Space   Used Autos Params    Refs
 ---------------------------------------------------------------------------------
 (0) _main                                                 0     0      0    9565
                           _LCD_Init
                      _LCD_String_xy
                            _MSdelay
                         _USART_Init
                   _USART_SendString
                       _bluetoothint
 ---------------------------------------------------------------------------------
 (1) _bluetoothint                                         0     0      0     778
                   _USART_SendString
                         _mspeedfunc
 ---------------------------------------------------------------------------------
 (2) _mspeedfunc                                           2     0      2     186
                                              0 COMRAM     2     0      2
 ---------------------------------------------------------------------------------
 (2) _USART_SendString                                     2     0      2     592
                                              1 COMRAM     2     0      2
                 _USART_TransmitChar
 ---------------------------------------------------------------------------------
 (3) _USART_TransmitChar                                   1     1      0      15
                                              0 COMRAM     1     1      0
 ---------------------------------------------------------------------------------
 (1) _USART_Init                                           8     4      4    4611
                                             59 COMRAM     8     4      4
                            ___fladd
                            ___fldiv
                            ___fltol
                           ___xxtofl
 ---------------------------------------------------------------------------------
 (2) ___xxtofl                                            14    10      4     398
                                              0 COMRAM    14    10      4
 ---------------------------------------------------------------------------------
 (2) ___fltol                                             10     6      4     305
                                              0 COMRAM    10     6      4
 ---------------------------------------------------------------------------------
 (2) ___fldiv                                             25    17      8    1399
                                             14 COMRAM    25    17      8
                           ___xxtofl (ARG)
 ---------------------------------------------------------------------------------
 (2) ___fladd                                             20    12      8    2388
                                             39 COMRAM    20    12      8
                            ___fldiv (ARG)
                           ___xxtofl (ARG)
 ---------------------------------------------------------------------------------
 (1) _MSdelay                                              6     4      2     396
                                              0 COMRAM     6     4      2
 ---------------------------------------------------------------------------------
 (1) _LCD_String_xy                                        5     2      3    2200
                                             10 COMRAM     5     2      3
                        _LCD_Command
                         _LCD_String
 ---------------------------------------------------------------------------------
 (2) _LCD_String                                           2     0      2     637
                                              8 COMRAM     2     0      2
                           _LCD_Char
 ---------------------------------------------------------------------------------
 (3) _LCD_Char                                             2     2      0     516
                                              6 COMRAM     2     2      0
                          _MSdelay_L
 ---------------------------------------------------------------------------------
 (1) _LCD_Init                                             0     0      0     988
                        _LCD_Command
                          _MSdelay_L
 ---------------------------------------------------------------------------------
 (2) _LCD_Command                                          2     2      0     516
                                              6 COMRAM     2     2      0
                          _MSdelay_L
 ---------------------------------------------------------------------------------
 (4) _MSdelay_L                                            6     4      2     472
                                              0 COMRAM     6     4      2
 ---------------------------------------------------------------------------------
 Estimated maximum stack depth 4
 ---------------------------------------------------------------------------------

 Call Graph Graphs:

 _main (ROOT)
   _LCD_Init
     _LCD_Command
       _MSdelay_L
     _MSdelay_L
   _LCD_String_xy
     _LCD_Command
       _MSdelay_L
     _LCD_String
       _LCD_Char
         _MSdelay_L
   _MSdelay
   _USART_Init
     ___fladd
       ___fldiv (ARG)
         ___xxtofl (ARG)
       ___xxtofl (ARG)
     ___fldiv
       ___xxtofl (ARG)
     ___fltol
     ___xxtofl
   _USART_SendString
     _USART_TransmitChar
   _bluetoothint
     _USART_SendString
       _USART_TransmitChar
     _mspeedfunc

 Address spaces:
Name               Size   Autos  Total    Cost      Usage
BIGRAM             7FF      0       0      21        0.0%
EEDATA             100      0       0       0        0.0%
BITBANK7           100      0       0      19        0.0%
BANK7              100      0       0      20        0.0%
BITBANK6           100      0       0      17        0.0%
BANK6              100      0       0      18        0.0%
BITBANK5           100      0       0      15        0.0%
BANK5              100      0       0      16        0.0%
BITBANK4           100      0       0      13        0.0%
BANK4              100      0       0      14        0.0%
BITBANK3           100      0       0      11        0.0%
BANK3              100      0       0      12        0.0%
BITBANK2           100      0       0       9        0.0%
BANK2              100      0       0      10        0.0%
BITBANK1           100      0       0       7        0.0%
BANK1              100      0       0       8        0.0%
BITBANK0            A0      0       0       4        0.0%
BANK0               A0      0       0       5        0.0%
BITCOMRAM           5F      0       0       0        0.0%
COMRAM              5F     43      48       1       75.8%
BITSFR_1             0      0       0     200        0.0%
SFR_1                0      0       0     200        0.0%
BITSFR               0      0       0     200        0.0%
SFR                  0      0       0     200        0.0%
STACK                0      0       0       2        0.0%
NULL                 0      0       0       0        0.0%
ABS                  0      0      48       6        0.0%
DATA                 0      0      48       3        0.0%
CODE                 0      0       0       0        0.0%


Microchip Technology PIC18 Macro Assembler V2.00 build -1524193055 
Symbol Table                                                                                   Mon Nov 26 22:20:09 2018

               ___fldiv@aexp 0027                 ___fldiv@bexp 0026                ?_bluetoothint 0001  
               ___fldiv@sign 001F                 ?_LCD_Command 0001                           l80 1C6C  
                         l81 1C70                           l90 1B9C                           l75 19B6  
                         l91 1B84                           l92 1BBC                           l93 1BBC  
                         l78 1C5A                           l79 1C5A                           l96 1A10  
                         l97 19C4                           l98 19EA                           l99 1A08  
                         u40 1C68                           u41 1C64                  ?_LCD_String 0009  
               __CFG_CP0$OFF 000000                 __CFG_CP1$OFF 000000                 __CFG_CP2$OFF 000000  
               __CFG_CP3$OFF 000000                  __CFG_LVP$ON 000000                          l100 1A2A  
                        l101 1A2A                          l110 16F6                          l111 170A  
                        l112 170E                          l113 170E                          l122 1AEA  
                        l106 1614                          l131 1B60                          l107 163A  
                        l140 1A38                          l116 1C2A                          l132 1B72  
                        l108 16B6                          l141 1A5E                          l125 1BDA  
                        l133 1B7E                          l109 168E                          l142 1A7C  
                        l126 1BC2                          l150 14A2                          l143 1A9E  
                        l119 1B36                          l127 1BFA                          l151 149E  
                        l144 1A9E                          l128 1BFA                          l152 1592  
                        l160 1576                          l161 1586                          l153 14EA  
                        l170 1914                          l162 15A2                          l154 14E6  
                        l139 1A84                          l171 18E0                          l155 158E  
                        l147 145A                          l172 1910                          l156 1532  
                        l148 1456                          l173 1900                          l165 1882  
                        l149 1596                          l157 152E                          l166 191C  
                        l174 190C                          l158 158A                          l167 18A0  
                        l175 191C                          l159 157A                          l168 1918  
                        l169 18C0                          l700 097A                          l701 0970  
                        l710 0A8C                          l702 098E                          l711 0AA0  
                        l703 09F6                          l720 0CC0                          l712 0AC2  
                        l704 09B6                          l480 182A                          l721 0C02  
                        l713 0B60                          l705 0A66                          l481 17FE  
                        l730 0CA6                          l722 0BFE                          l714 0AF8  
                        l706 0AC2                          l482 1812                          l474 1740  
                        l731 0CBC                          l723 0C12                          l715 0E14  
                        l707 0AAC                          l483 1802                          l475 1862  
                        l732 0D0A                          l724 0C50                          l716 0B5C  
                        l708 0A6A                          l484 1826                          l476 17D6  
                        l741 0DA0                          l733 0CF0                          l725 0CAA  
                        l717 0B30                          l709 0A84                          l485 184E  
                        l477 17BA                          l742 0DC8                          l734 0D0A  
                        l726 0C54                          l718 0B38                          l478 17BE  
                        l743 0DE0                          l735 0D06                          l727 0C72  
                        l719 0B4C                          l751 0E36                          l479 17D2  
                        l744 0DE6                          l736 0D7C                          l728 0C88  
                        l760 1234                          l752 0E74                          l840 1334  
                        l745 0E00                          l737 0D78                          l729 0C90  
                        l761 0F7C                          l753 0E6A                          l841 131C  
                        l833 128C                          l738 0D74                          l770 1088  
                        l762 1054                          l754 0E88                          l842 1366  
                        l834 12A0                          l739 0DCC                          l771 10A2  
                        l763 0FDC                          l755 0EA8                          l843 137A  
                        l835 12CE                          l780 11F8                          l772 10C8  
                        l764 101E                          l756 0EE6                          l844 136A  
                        l836 1410                          l781 1210                          l773 112A  
                        l765 1010                          l757 0EDC                          l837 12E6  
                        l694 08B2                          l782 1216                          l774 1110  
                        l766 1052                          l758 0EFA                          l846 139C  
                        l838 12D6                          l695 08F0                          l775 112A  
                        l767 1068                          l759 0F44                          l847 139C  
                        l839 1318                          l696 08E6                          l776 1126  
                        l768 1084                          l848 13B0                          l697 0904  
                        l777 118A                          l769 10B6                          l849 13FC  
                        l698 0922                          l778 1186                          l699 093C  
                        l779 11BE                          l867 1C56                          l869 1C6C  
               __CFG_CPB$OFF 000000                          _PR2 000FBB                 __CFG_CPD$OFF 000000  
                        wreg 000FE8                  LCD_Char@dat 0008                 ___fltol@exp1 000A  
                       l2001 178E                         l2003 17A2                         l2011 17D6  
                       l2101 1BFC                         l2013 17E6                         l2021 182A  
                       l2005 17B6                         l2111 1C1E                         l2103 1C00  
                       l2023 183A                         l2015 17FA                         l2007 17BE  
                       l2031 1248                         l2113 1C24                         l2105 1C0C  
                       l2121 1B56                         l2025 184E                         l2017 1802  
                       l2009 17C8                         l2041 12CE                         l2033 1256  
                       l2201 15F2                         l2107 1C12                         l2123 1B60  
                       l2115 1B3A                         l2027 1862                         l2019 1812  
                       l2051 132A                         l2043 12D6                         l2035 12A0  
                       l2131 1424                         l2211 162E                         l2203 1604  
                       l2109 1C18                         l2125 1B68                         l2117 1B3E  
                       l2061 13B0                         l2053 136A                         l2045 12E6  
                       l2037 12B6                         l2029 1238                         l2141 146C  
                       l2133 142C                         l2221 1676                         l2213 163A  
                       l2205 1614                         l2127 1B72                         l2119 1B4E  
                       l2071 13FC                         l2063 13B4                         l2055 137A  
                       l2047 131C                         l2039 12CA                         l2151 14B4  
                       l2143 1474                         l2135 143E                         l2231 16DA  
                       l2223 1682                         l2215 1648                         l2207 161C  
                       l1601 1B00                         l2073 1410                         l2065 13D8  
                       l2057 1388                         l2049 131E                         l2081 1928  
                       l2161 14FC                         l2153 14BC                         l2145 1486  
                       l2137 144A                         l2129 1412                         l2233 16DC  
                       l2241 16F6                         l2225 168E                         l2217 1658  
                       l2209 162A                         l1611 1B24                         l1603 1B02  
                       l2091 19E6                         l2067 13E8                         l2059 13AA  
                       l2083 1996                         l2075 191E                         l2171 1544  
                       l2163 1504                         l2155 14CE                         l2147 1492  
                       l2139 145A                         l2235 16E0                         l2227 16A0  
                       l2219 1664                         l1613 1B26                         l1605 1B04  
                       l1621 1BD2                         l2093 19EA                         l2085 19B8  
                       l1701 09C6                         l2069 13F6                         l2077 1924  
                       l2173 154C                         l2165 1516                         l2157 14DA  
                       l2149 14A2                         l2181 1596                         l2237 16E2  
                       l2229 16B6                         l1615 1B28                         l1607 1B06  
                       l1623 1BDA                         l2095 19EE                         l2087 19C4  
                       l1711 09DA                         l1703 09CA                         l2079 1926  
                       l1631 1894                         l2175 155E                         l2167 1522  
                       l2159 14EA                         l2239 16E6                         l2191 15AE  
                       l2183 15A4                         l1561 1A5E                         l1553 1A2C  
                       l1609 1B12                         l1617 1BBE                         l2097 1A08  
                       l2089 19CC                         l1801 0CA0                         l1721 09EE  
                       l1713 09DE                         l1705 09CE                         l1641 18E0  
                       l1633 18A0                         l1625 1864                         l2177 156A  
                       l2169 1532                         l2193 15BC                         l2185 15A8  
                       l1563 1A62                         l1555 1A38                         l1571 1AB2  
                       l1619 1BC2                         l2099 1A10                         l1811 0CE8  
                       l1803 0CAA                         l1731 0A5E                         l1715 09E2  
                       l1707 09D2                         l1723 09F6                         l1651 08B2  
                       l1643 18F4                         l1635 18B4                         l1627 1876  
                       l2179 157A                         l2195 15D0                         l2187 15AA  
                       l1565 1A7C                         l1557 1A40                         l1581 1AC6  
                       l1573 1AB4                         l1821 0D6E                         l1813 0CFE  
                       l1805 0CC0                         l1741 0AA0                         l1733 0A78  
                       l1725 09FA                         l1717 09E6                         l1709 09D6  
                       l1653 08C2                         l1661 08F0                         l1645 0892  
                       l1901 0F64                         l1637 18C0                         l1629 1882  
                       l2197 15DC                         l2189 15AC                         l1559 1A5A  
                       l1567 1A84                         l1583 1AD8                         l1575 1AB6  
                       l1831 0DCC                         l1815 0D1A                         l1823 0D7C  
                       l1807 0CC4                         l1751 0AF8                         l1743 0AAA  
                       l1735 0A84                         l1727 0A32                         l1719 09EA  
                       l1671 0928                         l1663 0904                         l1655 08D2  
                       l1647 089E                         l1911 0FC4                         l1903 0F78  
                       l1591 1B84                         l1639 18D4                         l2199 15E0  
                       l1585 1ADA                         l1577 1AB8                         l1569 1AA2  
                       l1841 0DFA                         l1833 0DDA                         l1825 0D8C  
                       l1817 0D26                         l1809 0CD2                         l1761 0B38  
                       l1753 0B08                         l1745 0AD0                         l1737 0A8C  
                       l1729 0A4E                         l1681 0970                         l1673 0936  
                       l1665 090A                         l1657 08E6                         l1649 08AC  
                       l1921 100E                         l1913 0FD4                         l1905 0F7C  
                       l1593 1B94                         l1587 1ADC                         l1579 1ABA  
                       l1843 0E00                         l1835 0DE0                         l1827 0DA0  
                       l1819 0D34                         l1771 0B86                         l1763 0B46  
                       l1755 0B16                         l1747 0AE0                         l1739 0A9A  
                       l1691 09AE                         l1683 0972                         l1675 093C  
                       l1667 091C                         l1659 08E8                         l1931 1068  
                       l1923 101E                         l1915 0FDC                         l1907 0FA4  
                       l1851 0E30                         l1595 1B9C                         l1597 1AEE  
                       l1845 0E14                         l1837 0DE6                         l1829 0DC0  
                       l1781 0C28                         l1773 0BDC                         l1765 0B4C  
                       l1757 0B24                         l1749 0AF4                         l1693 09B6  
                       l1677 094C                         l1685 097A                         l1669 0922  
                       l1933 107E                         l1941 10B6                         l1925 103C  
                       l1917 0FEC                         l1909 0FB4                         l1861 0E6C  
                       l1853 0E36                         l1589 1B80                         l1599 1AFE  
                       l1839 0DEC                         l1791 0C6C                         l1783 0C38  
                       l1775 0BDE                         l1767 0B56                         l1759 0B30  
                       l1695 09BA                         l1687 098E                         l1679 095C  
                       l1951 111E                         l1943 10C8                         l1935 1088  
                       l1927 103E                         l1919 1000                         l1871 0EA2  
                       l1855 0E46                         l1863 0E74                         l1847 0E16  
                       l1793 0C72                         l1785 0C4C                         l1777 0BEE  
                       l1769 0B60                         l1697 09BE                         l1689 09A0  
                       l1953 113A                         l1961 118A                         l1945 10CC  
                       l1937 1092                         l1929 1052                         l1881 0EDE  
                       l1873 0EA8                         l1865 0E88                         l1857 0E56  
                       l1849 0E22                         l1795 0C80                         l1787 0C54  
                       l1779 0C02                         l1699 09C2                         l1971 11FC  
                       l1963 11A4                         l1955 1146                         l1947 10DA  
                       l1939 10A0                         l1891 0F28                         l1875 0EB8  
                       l1883 0EE6                         l1867 0E8E                         l1859 0E6A  
                       l1797 0C88                         l1789 0C5E                         l1981 1220  
                       l1973 120A                         l1965 11BE                         l1957 1154  
                       l1949 1108                         l1893 0F2C                         l1885 0EFA  
                       l1877 0EC8                         l1869 0E94                         l1799 0C90  
                       l1983 1234                         l1975 1210                         l1967 11D8  
                       l1959 117E                         l1895 0F40                         l1887 0F10  
                       l1879 0EDC                         l1991 1740                         l1977 1216  
                       l1969 11F8                         l1889 0F20                         l1897 0F44  
                       l1993 176A                         l1985 1712                         l1979 121C  
                       l1899 0F54                         l1995 176C                         l1987 1728  
                       l1997 177C                         l1989 173C                         l1999 1780  
                       STR_1 0873                         STR_2 0862                         STR_3 084D  
                       STR_4 0834                         STR_5 0842                         STR_6 0813  
                       STR_7 0824                         STR_8 0801                         STR_9 087B  
                       u1100 1A78                         u1101 1A74                         u1110 1A9A  
                       u1111 1A96                         u2000 1A26                         u1200 08C2  
                       u1120 1BB8                         u2001 1A22                         u1201 08BE  
                       u1121 1BB4                         u1130 1BF6                         u2010 1B4E  
                       u1210 08D2                         u1131 1BF2                         u2011 1B4A  
                       u1211 08CE                         u1300 0A4C                         u1220 091C  
                       u1140 1876                         u2100 1544                         u2020 1424  
                       u1221 0918                         u1141 1872                         u2101 1540  
                       u2021 1420                         u1310 0A78                         u1230 0936  
                       u1150 1894                         u2110 155E                         u2030 143E  
                       u1311 0A74                         u1231 0932                         u1151 1890  
                       u2111 155A                         u2031 143A                         u1400 0BEE  
                       u1320 0A9A                         u1240 094C                         u1160 18B4  
                       u2040 146C                         u2120 162A                         u1401 0BEA  
                       u1321 0A96                         u1241 0948                         u1161 18B0  
                       u2041 1468                         u2121 1626                         u1090 1A56  
                       u1410 0C28                         u1330 0ABE                         u1250 095C  
                       u1170 18D4                         u2050 1486                         u2130 1648  
                       u1091 1A52                         u1411 0C24                         u1331 0ABA  
                       u1251 0958                         u1171 18D0                         u2051 1482  
                       u2131 1644                         u1500 0D1A                         u1420 0C38  
                       u1340 0AD0                         u1260 09A0                         u1180 18F4  
                       u2060 14B4                         u2140 1676                         u1501 0D16  
                       u1421 0C34                         u1341 0ACC                         u1261 099C  
                       u1181 18F0                         u2061 14B0                         u2141 1672  
                       u1510 0D34                         u1430 0C6C                         u1350 0AE0  
                       u1270 09AE                         u1190 08AC                         u2070 14CE  
                       _LATB 000F8A                         u1511 0D30                         u1431 0C68  
                       u1351 0ADC                         u1271 09AA                         u1191 08A8  
                       u2071 14CA                         u1520 0D6E                         u1440 0C80  
                       u1360 0B16                         u1280 0A32                         u1600 0E56  
                       u2080 14FC                         u1521 0D6A                         u1441 0C7C  
                       u1361 0B12                         u1281 0A2E                         u1601 0E52  
                       u2081 14F8                         u1530 0D8C                         u1450 0CA0  
                       u1370 0B24                         u1290 0A4A                         u1610 0EA2  
                       u2090 1516                         u1531 0D88                         u1451 0C9C  
                       u1371 0B20                         u1291 0A44                         u1611 0E9E  
                       u2091 1512                         u1540 0D9C                         u1460 0CB8  
                       u1380 0B46                         u1700 107E                         u1620 0EB8  
                       u1541 0D98                         u1461 0CB4                         u1381 0B42  
                       u1701 107A                         u1621 0EB4                         u1550 0DC0  
                       u1470 0CD2                         u1390 0B86                         u1710 10A0  
                       u1630 0EC8                         u1551 0DBC                         u1471 0CCE  
                       u1391 0B82                         u1711 109C                         u1631 0EC4  
                       u1560 0DDA                         u1480 0CE8                         u1800 120A  
                       u1720 10C4                         u1640 0F10                         u1561 0DD6  
                       u1481 0CE4                         u1801 1206                         u1721 10C0  
                       u1641 0F0C                         u1570 0DFA                         u1490 0CFE  
                       u1730 10DA                         u1650 0F54                         u1810 1728  
                       u1571 0DF6                         u1491 0CFA                         u1731 10D6  
                       u1651 0F50                         u1811 1724                         u1740 1108  
                       u1660 0FEC                         u1580 0E30                         u1820 1760  
                       u1900 12B6                         u1741 1104                         u1661 0FE8  
                       u1581 0E2C                         u1901 12B2                         u1750 111E  
                       u1670 100E                         u1590 0E46                         u1830 178E  
                       u1910 1314                         u1751 111A                         u1671 100A  
                       u1591 0E42                         u1831 178A                         u1911 1310  
                       u1760 113A                         u1680 103C                         u1840 17A2  
                       u1920 1362                         u1761 1136                         u1681 1038  
                       u1841 179E                         u1825 1756                         u1921 135E  
                       u1770 1154                         u1690 1064                         u1850 17E6  
                       u1930 1388                         u1771 1150                         u1691 1060  
                       u1851 17E2                         u1931 1384                         u1780 11A4  
                       u1860 1822                         u1940 1398                         u1781 11A0  
                       u1861 181E                         u1941 1394                         u1790 11D8  
                       u1870 183A                         u1950 13AA                         u1791 11D4  
                       u1871 1836                         u1951 13A6                         u1960 13E8  
                       u1880 1248                         u1961 13E4                         u1881 1244  
                       u1970 13F6                         u1890 1256                         u1971 13F2  
                       u1891 1252                         u1980 19E2                         u1981 19DE  
                       u1990 1A04                         u1991 1A00                         _RCIF 007CF5  
                       _TXIF 007CF4                         _main 15A4     __end_of_USART_SendString 1BBE  
              __CFG_BORV$190 000000                         start 0000              __end_of_MSdelay 1A2C  
              __CFG_IESO$OFF 000000              ___fldiv@new_exp 0020                _LCD_String_xy 1B38  
              __CFG_MCLRE$ON 000000                 ___param_bank 000000               ??_bluetoothint 0004  
           __end_of_LCD_Char 1AEC             __end_of_LCD_Init 1C2C                ___fltol@sign1 0009  
            __end_of___fladd 0E16                        ?_main 0001              __end_of___fldiv 1236  
                      STR_10 0858                        STR_11 0889                        STR_12 086B  
                      STR_13 0882              __end_of___fltol 1864                        _T2CON 000FBA  
                      _LATB0 007C50                        _LATB1 007C51                        _RCREG 000FAE  
                      _RCSTA 000FAB                        _SPBRG 000FAF                        _TRISB 000F93  
                      _TRISD 000F95                        _TXREG 000FAD                        _TXSTA 000FAC  
              __CFG_WRT0$OFF 000000                __CFG_WRT1$OFF 000000                __CFG_WRT2$OFF 000000  
              __CFG_WRT3$OFF 000000               __CFG_EBTR0$OFF 000000               __CFG_FCMEN$OFF 000000  
             __CFG_EBTR1$OFF 000000               __CFG_EBTR2$OFF 000000               __CFG_EBTR3$OFF 000000  
              __CFG_WRTB$OFF 000000                __CFG_WRTC$OFF 000000                __CFG_WRTD$OFF 000000  
             __CFG_EBTRB$OFF 000000                        tablat 000FF5                        status 000FD8  
             __CFG_T3CMX$RC0 000000          __size_of_LCD_String 003E               __CFG_ICPRT$OFF 000000  
             __CFG_PBADEN$ON 000000               ?_LCD_String_xy 000B                  ?_USART_Init 003C  
            __initialization 1C2C                 __end_of_main 1712           __size_of_MSdelay_L 0074  
             __CFG_PCLKEN$ON 000000                       ??_main 0044                __activetblptr 000001  
             __CFG_SDOMX$RB3 000000              __CFG_CCP2MX$RC1 000000                       _CCPR1L 000FBE  
                     _CCPR2L 000F90                       _ANSELC 000F5D             LCD_String_xy@msg 000C  
           LCD_String_xy@pos 000B             LCD_String_xy@row 000E                    ??_MSdelay 0003  
             __CFG_WDTEN$OFF 000000                       _OSCCON 000FD3                       _TRISC1 007CA1  
                     _TRISC2 007CA2                       _TRISC6 007CA6                       _TRISC7 007CA7  
           __end_of___xxtofl 1412               __CFG_XINST$OFF 000000                    ??___fladd 0030  
                  ??___fldiv 0017               __CFG_STVREN$ON 000000                    ??___fltol 0005  
                     _fbtext 0044         __size_of_LCD_Command 004C                 __pdataCOMRAM 0048  
 __end_of_USART_TransmitChar 1C72                 __mediumconst 0000                       tblptrh 000FF7  
                     tblptrl 000FF6                       tblptru 000FF8          __size_of_USART_Init 009A  
          __end_of_MSdelay_L 1AA0         __end_of_bluetoothint 15A4         __CFG_LS48MHZ$SYS24X4 000000  
               ___xxtofl@arg 000B                 ___xxtofl@exp 000A                 ___xxtofl@val 0001  
                  ?_LCD_Char 0001                   __accesstop 0060      __end_of__initialization 1C46  
                  ?_LCD_Init 0001              ??_LCD_String_xy 000E                ___rparam_used 000001  
                 ___fltol@f1 0001               __pcstackCOMRAM 0001             __CFG_nPWRTEN$OFF 000000  
               ??_LCD_String 000B                   ??_LCD_Char 0007                   ??_LCD_Init 0009  
         __end_of_LCD_String 1BFC            ?_USART_SendString 0002           ??_USART_SendString 0004  
          __CFG_PLLSEL$PLL4X 000000                      _CCP1CON 000FBD                      _CCP2CON 000F97  
                  ?___xxtofl 0001                      _MSdelay 19B8                LCD_String@msg 0009  
               ??_USART_Init 0040                      __Hparam 0000                      __Lparam 0000  
                    ___fladd 0892                      ___fldiv 0E16                      ___fltol 1712  
               __psmallconst 0800                      __pcinit 1C2C                      __ramtop 0800  
                    __ptext0 15A4                      __ptext1 1412                      __ptext2 1864  
                    __ptext3 1B80                      __ptext4 1C54                      __ptext5 191E  
                    __ptext6 1236                      __ptext7 1712                      __ptext8 0E16  
                    __ptext9 0892          USART_SendString@out 0002               USART_Init@temp 0040  
      __size_of_bluetoothint 0192                   ??___xxtofl 0005           __end_of_USART_Init 19B8  
       end_of_initialization 1C46               LCD_Command@cmd 0008                 MSdelay_L@val 0001  
                 _mspeedfunc 1864                 _bluetoothint 1412                    _PORTCbits 000F82  
                ___fladd@grs 003B                ___xxtofl@sign 0009                  ___fldiv@grs 0022  
                ___fldiv@rem 001B          USART_Init@baud_rate 003C        USART_TransmitChar@out 0001  
                  _MSdelay_L 1A2C           _USART_TransmitChar 1C54            __size_of_LCD_Char 004C  
          __size_of_LCD_Init 0030          mspeedfunc@mspeedval 0001          ?_USART_TransmitChar 0001  
              ??_LCD_Command 0007                __pidataCOMRAM 1C72          start_initialization 1C2C  
       ??_USART_TransmitChar 0001              __CFG_nLPBOR$OFF 000000                   ?_MSdelay_L 0001  
      __end_of_LCD_String_xy 1B80                  ?_mspeedfunc 0001    __size_of_USART_SendString 003E  
                  ___fladd@a 002C                    ___fladd@b 0028                    ___fldiv@a 0013  
                  ___fldiv@b 000F          __end_of_LCD_Command 1B38                  __pbssCOMRAM 0044  
          __size_of___xxtofl 01DC                     ?_MSdelay 0001                     ?___fladd 0028  
                   ?___fldiv 000F                     ?___fltol 0001                  __smallconst 0800  
      LCD_String_xy@location 000F          __size_of_mspeedfunc 00BA                     MSdelay@i 0003  
                   MSdelay@j 0005                     _LCD_Char 1AA0                     _LCD_Init 1BFC  
                ??_MSdelay_L 0003                     _LATDbits 000F8C                    _mspeedval 0046  
           __CFG_WDTPS$32768 000000                  _LCD_Command 1AEC            __CFG_CFGPLLEN$OFF 000000  
           __size_of_MSdelay 0074                     __Hrparam 0000                     __Lrparam 0000  
               __Lsmallconst 0800           __CFG_BOREN$SBORDIS 000000             __size_of___fladd 0584  
           __size_of___fldiv 0420             __size_of___fltol 0152             _USART_SendString 1B80  
                   ___xxtofl 1236                     __ptext10 19B8                     __ptext11 1B38  
                   __ptext12 1BBE                     __ptext13 1AA0                     __ptext14 1BFC  
                   __ptext15 1AEC                     __ptext16 1A2C                __size_of_main 016E  
                 MSdelay@val 0001                   MSdelay_L@i 0003                   MSdelay_L@j 0005  
               ??_mspeedfunc 0003                   _LCD_String 1BBE  __size_of_USART_TransmitChar 001E  
         __end_of_mspeedfunc 191E                   _BT_data_in 0048         __CFG_CPUDIV$NOCLKDIV 000000  
     __size_of_LCD_String_xy 0048                ___fladd@signs 0038           __CFG_FOSC$INTOSCIO 000000  
               ___fladd@aexp 0039                 ___fladd@bexp 003A                   _USART_Init 191E  
